##############################################################################
#                                                                            #
# IAR 8051 C/C++ Compiler V7.20H/W32                   28/Jun/2016  10:13:31 #
# Copyright 2004-2006 IAR Systems. All rights reserved.                      #
#                                                                            #
#    Core               =  plain                                             #
#    Code model         =  banked                                            #
#    Data model         =  large                                             #
#    Calling convention =  extended stack reentrant                          #
#    Constant location  =  code                                              #
#    Extended stack     =  enabled                                           #
#    Dptr setup         =  1,16                                              #
#    Source file        =  E:\Juchen\CW6687G\JC_M_328_20160617_P0\APP\task\t #
#                          ask_NPCP215X.c                                    #
#    Command line       =  -I "C:\Program Files\IAR Systems\Embedded         #
#                          Workbench 4.05 Evaluation version\8051\INC\" -I   #
#                          "C:\Program Files\IAR Systems\Embedded Workbench  #
#                          4.05 Evaluation version\8051\INC\CLIB\" -I        #
#                          E:\Juchen\CW6687G\JC_M_328_20160617_P0\APP\api\   #
#                          -I E:\Juchen\CW6687G\JC_M_328_20160617_P0\APP\dis #
#                          play\ -I E:\Juchen\CW6687G\JC_M_328_20160617_P0\A #
#                          PP\display\lcd\ -I E:\Juchen\CW6687G\JC_M_328_201 #
#                          60617_P0\APP\display\lcdseg\ -I                   #
#                          E:\Juchen\CW6687G\JC_M_328_20160617_P0\APP\displa #
#                          y\led\ -I E:\Juchen\CW6687G\JC_M_328_20160617_P0\ #
#                          APP\display\ledseg\ -I E:\Juchen\CW6687G\JC_M_328 #
#                          _20160617_P0\APP\display\no\ -I                   #
#                          E:\Juchen\CW6687G\JC_M_328_20160617_P0\APP\config #
#                          \ -I E:\Juchen\CW6687G\JC_M_328_20160617_P0\APP\c #
#                          ommon\ -I E:\Juchen\CW6687G\JC_M_328_20160617_P0\ #
#                          APP\task\ -I E:\Juchen\CW6687G\JC_M_328_20160617_ #
#                          P0\APP\user\ -I E:\Juchen\CW6687G\JC_M_328_201606 #
#                          17_P0\APP\user\mp3res\ -I                         #
#                          E:\Juchen\CW6687G\JC_M_328_20160617_P0\APP\btstac #
#                          k\ -I E:\Juchen\CW6687G\JC_M_328_20160617_P0\APP\ #
#                          user\user_config\ -I E:\Juchen\CW6687G\JC_M_328_2 #
#                          0160617_P0\APP\user\user_iis\ -lC                 #
#                          E:\Juchen\CW6687G\JC_M_328_20160617_P0\APP\Debug\ #
#                          List\ -o E:\Juchen\CW6687G\JC_M_328_20160617_P0\A #
#                          PP\Debug\Obj\ -e -z9 --debug --core=plain         #
#                          --dptr=16,1 --data_model=large                    #
#                          --code_model=banked --calling_convention=ext_stac #
#                          k_reentrant --place_constants=code                #
#                          --nr_virtual_regs 20 --extended_stack             #
#                          E:\Juchen\CW6687G\JC_M_328_20160617_P0\APP\task\t #
#                          ask_NPCP215X.c                                    #
#    List file          =  E:\Juchen\CW6687G\JC_M_328_20160617_P0\APP\Debug\ #
#                          List\task_NPCP215X.lst                            #
#    Object file        =  E:\Juchen\CW6687G\JC_M_328_20160617_P0\APP\Debug\ #
#                          Obj\task_NPCP215X.r51                             #
#                                                                            #
#                                                                            #
##############################################################################

E:\Juchen\CW6687G\JC_M_328_20160617_P0\APP\task\task_NPCP215X.c
      1          #include "include.h"

   \                                 In segment SFR_AN, at 0x80
   \   unsigned char volatile __sfr P0
   \                     P0:
   \   000000                DS 1

   \                                 In segment SFR_AN, at 0x90
   \   unsigned char volatile __sfr P1
   \                     P1:
   \   000000                DS 1

   \                                 In segment SFR_AN, at 0xba
   \   unsigned char volatile __sfr P0DIR
   \                     P0DIR:
   \   000000                DS 1

   \                                 In segment SFR_AN, at 0xbb
   \   unsigned char volatile __sfr P1DIR
   \                     P1DIR:
   \   000000                DS 1
      2          #include "task.h"
      3          #include "api_bt.h"
      4          #include "task_music.h"
      5          #include "user_fm.h"
      6          #include "user_setting.h"
      7          #include "task_CS8416.h"
      8          #include "task_STA350.h"
      9          
     10          #if NPCP215X
     11          
     12          #include "task_NPCP215X.h"
     13          
     14          #define  MaxxDSPADDERSS	    0xe6
     15          //#define  MaxxDSPADDERSS	    0x73
     16          
     17          //#define  CS8416ADDERSS	    0x28
     18          extern void music_file_next(void);
     19          extern void music_file_prev(void);
     20          

   \                                 In segment XDATA_Z, align 1, keep-with-next
   \   000000                REQUIRE __INIT_XDATA_Z
     21          u8 Bypass_Status = 0;
   \                     Bypass_Status:
   \   000000                DS 1
     22          
     23          #if 0
     24          u8 g_abMaxxDspAUX1Mode[] =
     25          {
     26              0xFF, 0xAD, 0x83,   // Set ADC Input Control 
     27              0x00, 0x00, 0x88,   // ==>  Stereo,  LIN1(30K),  RIN1(30K).  
     28              0xFF, 0xAD, 0x86,   // CODEC Latch 
     29              0x00, 0x00, 0x00,   
     30              0xFF, 0xAD, 0x86,   // CODEC Latch 
     31              0x00, 0x00, 0x01,   
     32          };
     33          #endif
     34          #if 0
     35          #pragma location="DSP_VOL_DATA"
     36          const __code u16 Audio_VolumeData[31] =
     37          {
     38              0x00,
     39              0x32, 0x64, 0x7d, 0x96, 0xaf, 0xc8, 0xd8, 0xe6, 0xf6,0x104,
     40              0x10e,0x118,0x122,0x12c,0x136,0x140,0x14a,0x154,0x15e,0x163,
     41              0x168,0x16d,0x172,0x177,0x17c,0x181,0x18a,0x186,0x18b,0x1f3,//0x190,
     42          };
     43          #endif
     44          
     45          #if 0
     46          #pragma location="DSP_VOL_DATA"
     47          const __code u16 Audio_VolumeData[33] =
     48          {
     49              0x00, 0x32, 0x64,
     50              0x80, 0x96, 0xaf, 0xc8, 0xdc, 0xf0, 0x104,0x118,0x122,0x12c,
     51              0x136,0x140,0x14a,0x154,0x15e,0x168,0x172,0x17c,0x186,0x190,
     52              0x19a,0x1a4,0x1ae,0x1b8,0x1c2,0x1cc,0x1d6,0x1e0,0x1ea,0x1f3,//0x190,
     53          };
     54          #endif
     55          //min:-80db
     56          //max:-5db
     57          #if 0
     58          #pragma location="DSP_VOL_DATA"
     59          const __code u16 Audio_VolumeData[33] =
     60          {
     61              0x00, 0x32, 0x8d,
     62              0xad, 0xcd, 0xd2, 0xd7, 0xdc, 0xe1, 0xe6,0xeb,0xf0,0xf5,
     63              0xfa,0xff,0x104,0x109,0x10e,0x113,0x118,0x11d,0x122,0x12c,
     64              0x131,0x136,0x13b,0x140,0x145,0x14a,0x14f,0x154,0x159,0x15e,//
     65          };
     66          #endif
     67          //min:-80db
     68          //max:-5db
     69          #if 0
     70          #pragma location="DSP_VOL_DATA"
     71          const __code u16 Audio_VolumeData[33] =
     72          {
     73              0x00, 0x65, 0x85,
     74              0xa5, 0xc5, 0xe5, 0xf0, 0xf5, 0xfa, 0xff,0x104,0x109,0x10e,
     75              0x113,0x118,0x11d,0x127,0x12c,0x131,0x136,0x13b,0x140,0x145,
     76              0x14a,0x14f,0x154,0x159,0x15e,0x163,0x168,0x16d,0x172,0x177,//
     77          };
     78          #endif
     79          #if 0
     80          //min:-80db
     81          //max:+10db
     82          #pragma location="DSP_VOL_DATA"
     83          const __code u16 Audio_VolumeData[33] =
     84          {
     85          #if 1
     86              0x00,0x98,0xa5,
     87              0xb9,0xcd,0xe1,0xeb,0xfa,0x10e,0x122,0x131,0x140,0x154,
     88              0x163,0x16d,0x177,0x18d,0x19a,0x1a4,0x1a9,0x1ae,0x1b3,0x1b8,
     89              0x1b8,0x1bd,0x1c2,0x1c7,0x1cc,0x1ce,0x1d1,0x1d3,0x1d6,0x1d6,//14db
     90          #endif
     91          
     92          #if 0
     93              0x00,0x9c,0xbb,
     94              0xc8,0xd5,0xe2,0xec,0xf6,0x100,0x10a,0x114,0x11e,0x128,
     95              0x132,0x13a,0x142,0x14a,0x152,0x16a,0x162,0x16a,0x172,0x17a,
     96              0x17f,0x184,0x189,0x18e,0x193,0x198,0x19b,0x19e,0x1a1,0x1a4,//
     97          #endif
     98             
     99          };
    100          #endif
    101          
    102          #pragma location="DSP_VOL_DATA"

   \                                 In segment DSP_VOL_DATA, align 1
    103          const __code u32 Audio_VolumeData[33] =
   \                     Audio_VolumeData:
   \   000000   00000000     DD 0, 0, 160, 795, 2098, 3259, 5729, 6634, 8599, 9098, 11147, 13658
   \            00000000
   \            A0000000
   \            1B030000
   \            32080000
   \            BB0C0000
   \            61160000
   \            EA190000
   \            97210000
   \            8A230000
   \            8B2B0000
   \            5A350000
   \   000030   BC460000     DD 18108, 20501, 24282, 27490, 34450, 43660, 52891, 63356, 72542, 89885
   \            15500000
   \            DA5E0000
   \            626B0000
   \            92860000
   \            8CAA0000
   \            9BCE0000
   \            7CF70000
   \            5E1B0100
   \            1D5F0100
   \   000058   05920100     DD 102917, 115209, 151039, 191421, 221661, 253798, 380969, 466755
   \            09C20100
   \            FF4D0200
   \            BDEB0200
   \            DD610300
   \            66DF0300
   \            29D00500
   \            431F0700
   \   000078   2CD30800     DD 578348, 766813, 1032024
   \            5DB30B00
   \            58BF0F00
    104          {
    105              0x000000,  // M1 - SDI0 to Processing path (-inf)
    106              0x000000,  // M1 - SDI0 to Processing path (-inf)
    107              0x0000A0,  // M1 - SDI0 to Processing path (-76.39 dB)
    108              0x00031B,  // M1 - SDI0 to Processing path (-62.47 dB)
    109              0x000832,  // M1 - SDI0 to Processing path (-54.04 dB)
    110              0x000CBB,  // M1 - SDI0 to Processing path (-50.21 dB)
    111              0x001661,  // M1 - SDI0 to Processing path (-45.31 dB)
    112              0x0019EA,  // M1 - SDI0 to Processing path (-44.04 dB)
    113              0x002197,  // M1 - SDI0 to Processing path (-41.78 dB)
    114              0x00238A,  // M1 - SDI0 to Processing path (-41.29 dB)
    115              0x002B8B,  // M1 - SDI0 to Processing path (-39.53 dB)
    116              0x00355A,  // M1 - SDI0 to Processing path (-37.77 dB)
    117              0x0046BC,  // M1 - SDI0 to Processing path (-35.32 dB)
    118              0x005015,  // M1 - SDI0 to Processing path (-34.24 dB)
    119              0x005EDA,  // M1 - SDI0 to Processing path (-32.77 dB)
    120              0x006B62,  // M1 - SDI0 to Processing path (-31.69 dB)
    121              0x008692,  // M1 - SDI0 to Processing path (-29.73 dB)
    122              0x00AA8C,  // M1 - SDI0 to Processing path (-27.67 dB)
    123              0x00CE9B,  // M1 - SDI0 to Processing path (-26.01 dB)
    124              0x00F77C,  // M1 - SDI0 to Processing path (-24.44 dB)
    125              0x011B5E,  // M1 - SDI0 to Processing path (-23.26 dB)
    126              0x015F1D,  // M1 - SDI0 to Processing path (-21.40 dB)
    127              0x019205,  // M1 - SDI0 to Processing path (-20.22 dB)
    128              0x01C209,  // M1 - SDI0 to Processing path (-19.24 dB)
    129              0x024DFF,  // M1 - SDI0 to Processing path (-16.89 dB)
    130              0x02EBBD,  // M1 - SDI0 to Processing path (-14.83 dB)
    131              0x0361DD,  // M1 - SDI0 to Processing path (-13.56 dB)
    132              0x03DF66,  // M1 - SDI0 to Processing path (-12.38 dB)
    133              0x05D029,  // M1 - SDI0 to Processing path (-8.86 dB)
    134              0x071F43,  // M1 - SDI0 to Processing path (-7.09 dB)
    135              0x08D32C,  // M1 - SDI0 to Processing path (-5.23 dB)
    136              0x0BB35D,  // M1 - SDI0 to Processing path (-2.78 dB)
    137              0x0FBF58,  // M1,-,SDI0,to,Processing,path,(-0.20,dB)
    138          };
    139          
    140          #pragma location="DSP_VOL_DATA"

   \                                 In segment DSP_VOL_DATA, align 1
    141          const __code u8 Audio_inputData[51] =
   \                     Audio_inputData:
   \   000000   0FBF580F     DB 15, 191, 88, 15, 191, 88, 16, 29, 63, 0, 0, 0, 0, 0, 0, 0, 0, 0, 0
   \            BF58101D
   \            3F000000
   \            00000000
   \            000000  
   \   000013   00007FFF     DB 0, 0, 127, 255, 255, 127, 255, 255, 127, 255, 255, 0, 0, 0, 0, 0, 0
   \            FF7FFFFF
   \            7FFFFF00
   \            00000000
   \            00      
   \   000024   0000007F     DB 0, 0, 0, 127, 255, 255, 0, 0, 0, 127, 255, 255, 0, 200, 0
   \            FFFF0000
   \            007FFFFF
   \            00C800  
    142          {
    143              //0x00,0xA4,0x11,,//,Load,Mixer,Gains,-,Start,
    144              //0x73:,0x0B,0xB3,0x5D,,//,M1,-,SDI0,to,Processing,path,(-2.78,dB)
    145              0x0F,0xBF,0x58,//M2,-,SDI1,to,Processing,path,(-0.20,dB)
    146              0x0F,0xBF,0x58,//M3,-,SDI2,to,Processing,path,(-0.20,dB)
    147              0x10,0x1D,0x3F,//M4,-,SDI3,to,Processing,path,(ADC),(-0.00,dB)
    148              0x00,0x00,0x00,//M5,-,SDI0,to,UnProcessing,path,(-inf)
    149              0x00,0x00,0x00,//M6,-,SDI1,to,UnProcessing,path,(-inf)
    150              0x00,0x00,0x00,//M7,-,SDI2,to,UnProcessing,path,(-inf)
    151              0x00,0x00,0x00,//M8,-,SDI3,to,UnProcessing,path,(ADC),(-inf)
    152              0x7F,0xFF,0xFF,//M9,-,SDO0,from,Processed,path,(0.00,dB)
    153              0x7F,0xFF,0xFF,//M10-,SDO1,from,Processed,path,(0.00,dB)
    154              0x7F,0xFF,0xFF,//M11-,SDO3,from,Processed,path,(DAC1/AMP),(0.00,dB)
    155              0x00,0x00,0x00,//M12-,SDO0,from,UnProcessed,path,(-inf)
    156              0x00,0x00,0x00,//M13-,SDO1,from,UnProcessed,path,(-inf)
    157              0x00,0x00,0x00,//M14-,SDO3,from,UnProcessed,path,(DAC1/AMP),(-inf)
    158              0x7F,0xFF,0xFF,//M15-,SDO2,from,Subwoofer,path,(DAC2/AMP),(0.00,dB)
    159              0x00,0x00,0x00,//M16-,SDO2,from,UnProcessed,path,(DAC2),(-inf)
    160              0x7F,0xFF,0xFF,//M17-,SDO2,from,Processed,path,(DAC2),(0.00,dB)
    161              0x00,0xC8,0x00,//,Load,Mixer,Gains,-,End,
    162          };
    163          
    164          #pragma location="DSP_DATA3"

   \                                 In segment DSP_DATA3, align 1
    165          const __code u8 MaxxDSP_Bass_Commands[66] =
   \                     MaxxDSP_Bass_Commands:
   \   000000   00A10500     DB 0, 161, 5, 0, 0, 0, 0, 0, 0, 0, 0, 12, 0, 0, 22, 0, 0, 85, 0, 216, 0
   \            00000000
   \            0000000C
   \            00001600
   \            005500D8
   \            00      
   \   000015   00A10500     DB 0, 161, 5, 0, 0, 1, 0, 0, 0, 0, 0, 24, 0, 0, 58, 0, 0, 87, 0, 216, 0
   \            00010000
   \            00000018
   \            00003A00
   \            005700D8
   \            00      
   \   00002A   00A10500     DB 0, 161, 5, 0, 0, 2, 0, 0, 0, 0, 0, 36, 0, 0, 58, 0, 0, 89, 0, 216, 0
   \            00020000
   \            00000024
   \            00003A00
   \            005900D8
   \            00      
   \   00003F   00D100       DB 0, 209, 0
    166          {   
    167              0x00,0xA1,0x05,//Load,PEQ,Start,
    168              0x00,0x00,0x00,//Ch:,1,
    169              0x00,0x00,0x00,//Type:,Bell,,,,,,,
    170              0x00,0x00,0x0C,//Freq:,32,Hz,
    171              0x00,0x00,0x16,//Q:,1.37,
    172              0x00,0x00,0x55,//Gain:,5.9,
    173              0x00,0xD8,0x00,//Load,PEQ,End,
    174              0x00,0xA1,0x05,//Load,PEQ,Start,
    175              0x00,0x00,0x01,//Ch:,2,
    176              0x00,0x00,0x00,//Type:,Bell,,,,,,,
    177              0x00,0x00,0x18,//Freq:,64,Hz,
    178              0x00,0x00,0x3A,//Q:,2.96,
    179              0x00,0x00,0x57,//Gain:,6.5,
    180              0x00,0xD8,0x00,//Load,PEQ,End,
    181              0x00,0xA1,0x05,//Load,PEQ,Start,
    182              0x00,0x00,0x02,//Ch:,3,
    183              0x00,0x00,0x00,//Type:,Bell,,,,,,,
    184              0x00,0x00,0x24,//Freq:,128,Hz,
    185              0x00,0x00,0x3A,//Q:,2.96,
    186              0x00,0x00,0x59,//Gain:,7.0,
    187              0x00,0xD8,0x00,//Load,PEQ,End,    
    188              
    189              0x00,0xD1,0x00,//Set MaxxBass Intensity : 0.0 %
    190          };
    191          
    192          #if 0
    193          #pragma location="DSP_DATA3"
    194          const __code u8 MaxxDSP_Bass_Commands[63] =
    195          {
    196              0x00,0xA1,0x05,//Load,PEQ,Start,
    197              0x00,0x00,0x02,//Ch:,3,
    198              0x00,0x00,0x00,//Type:,Bell,,,,,,,
    199              0x00,0x00,0x24,//Freq:,128,Hz,
    200              0x00,0x00,0x3A,//Q:,2.96,
    201              0x00,0x00,0x59,//Gain:,7.0
    202              0x00,0xD8,0x00,//Load,PEQ,End,
    203              0x00,0xA1,0x05,//Load,PEQ,Start,
    204              0x00,0x00,0x03,//Ch:,4,
    205              0x00,0x00,0x00,//Type:,Bell,,,,,,,
    206              0x00,0x00,0x30,//Freq:,256,Hz,
    207              0x00,0x00,0x3A,//Q:,2.96,
    208              0x00,0x00,0x54,//Gain:,5.6
    209              0x00,0xD8,0x00,//Load,PEQ,End,
    210              0x00,0xA1,0x05,//Load,PEQ,Start,
    211              0x00,0x00,0x04,//Ch:,5,
    212              0x00,0x00,0x00,//Type:,Bell,,,,,,,
    213              0x00,0x00,0x3C,//Freq:,512,Hz,
    214              0x00,0x00,0x3A,//Q:,2.96,
    215              0x00,0x00,0x54,//Gain:,5.6
    216              0x00,0xD8,0x00,//Load,PEQ,End,
    217              
    218          };
    219          #endif
    220          #pragma location="DSP_DATA3"

   \                                 In segment DSP_DATA3, align 1
    221          const __code u8 MaxxDSP_Treble_Commands[63] =
   \                     MaxxDSP_Treble_Commands:
   \   000000   00A10500     DB 0, 161, 5, 0, 0, 6, 0, 0, 0, 0, 0, 86, 0, 0, 58, 0, 0, 86, 0, 216, 0
   \            00060000
   \            00000056
   \            00003A00
   \            005600D8
   \            00      
   \   000015   00A10500     DB 0, 161, 5, 0, 0, 7, 0, 0, 0, 0, 0, 99, 0, 0, 58, 0, 0, 78, 0, 216, 0
   \            00070000
   \            00000063
   \            00003A00
   \            004E00D8
   \            00      
   \   00002A   00A10500     DB 0, 161, 5, 0, 0, 8, 0, 0, 0, 0, 0, 113, 0, 0, 58, 0, 0, 91, 0, 216
   \            00080000
   \            00000071
   \            00003A00
   \            005B00D8
   \   00003E   00           DB 0
    222          {
    223              0x00,0xA1,0x05,//Load,PEQ,Start,
    224              0x00,0x00,0x06,//Ch:,7,
    225              0x00,0x00,0x00,//Type:,Bell,,,,,,,
    226              0x00,0x00,0x56,//Freq:,2299,Hz,
    227              0x00,0x00,0x3A,//Q:,2.96,
    228              0x00,0x00,0x56,//Gain:,6.2,
    229              0x00,0xD8,0x00,//Load,PEQ,End,
    230              0x00,0xA1,0x05,//Load,PEQ,Start,
    231              0x00,0x00,0x07,//Ch:,8,
    232              0x00,0x00,0x00,//Type:,Bell,,,,,,,
    233              0x00,0x00,0x63,//Freq:,4871,Hz,
    234              0x00,0x00,0x3A,//Q:,2.96,
    235              0x00,0x00,0x4e,//Gain:,3.9
    236              0x00,0xD8,0x00,//Load,PEQ,End,
    237              0x00,0xA1,0x05,//Load,PEQ,Start,
    238              0x00,0x00,0x08,//Ch:,9,
    239              0x00,0x00,0x00,//Type:,Bell,,,,,,,
    240              0x00,0x00,0x71,//Freq:,10935,Hz,
    241              0x00,0x00,0x3A,//Q:,2.96,
    242              0x00,0x00,0x5b,//Gain:,7.6
    243              0x00,0xD8,0x00,//Load,PEQ,End,  
    244          };
    245          
    246          
    247          #pragma location="DSP_DATA3"

   \                                 In segment DSP_DATA3, align 1
    248          const u8 Treble_Bass_TAB[21]=
   \                     Treble_Bass_TAB:
   \   000000   151C2024     DB 21, 28, 32, 36, 40, 44, 48, 52, 56, 60, 64, 67, 71, 75, 79, 83, 91
   \            282C3034
   \            383C4043
   \            474B4F53
   \            5B      
   \   000011   5F63676B     DB 95, 99, 103, 107
    249          {
    250              0x15,// Gain: -12.1
    251              0x1c,
    252              0x20,
    253              0x24,
    254              0x28,
    255              0x2c,
    256              0x30,    
    257              0x34,
    258              0x38,
    259              0x3c,
    260              0x40,// Gain = 0 dB
    261              0x43,
    262              0x47,
    263              0x4b,
    264              0x4f,
    265              0x53,
    266              0x5b,
    267              0x5f,
    268              0x63,
    269              0x67,
    270              0x6b,//Gain:,12.1,
    271          };
    272          
    273          #pragma location="DSP_DATA3"

   \                                 In segment DSP_DATA3, align 1
    274          const u8 Treble_Bass_Intensity[21]=
   \                     Treble_Bass_Intensity:
   \   000000   0003060A     DB 0, 3, 6, 10, 14, 18, 22, 26, 30, 34, 38, 41, 44, 55, 48, 56, 60, 64
   \            0E12161A
   \            1E222629
   \            2C373038
   \            3C40    
   \   000012   44484C       DB 68, 72, 76
    275          {
    276              0x00,// 0
    277              0x03,
    278              0x06,
    279              0x0a,
    280              0x0e,
    281              0x12,
    282              0x16,    
    283              0x1a,
    284              0x1e,
    285              0x22,
    286              0x26,//30
    287              0x29,
    288              0x2c,
    289              0x37,
    290              0x30,
    291              0x38,
    292              0x3c,
    293              0x40,
    294              0x44,
    295              0x48,
    296              0x4c,//60
    297          };
    298          
    299          #if 0
    300          #pragma location="DSP_DATA1"
    301          const __code u8 g_abMaxxDSP_Reset[21] =
    302          {
    303              0x00,0xA5,0x00,
    304              0x00,0xA5,0x00,    
    305              0x00,0xA5,0x00,
    306              0x00,0xB8,0x00,
    307              0x00,0xB7,0x00,
    308              0xFF,0xB5,0xF1,
    309              0x00,0xC5,0x00,
    310          };
    311          #endif
    312          
    313          #if 1
    314          #pragma location="DSP_DATA1"

   \                                 In segment DSP_DATA1, align 1
    315          const __code u8 MaxxDSP_3D_ON[9] =
   \                     MaxxDSP_3D_ON:
   \   000000   00D37F03     DB 0, 211, 127, 3, 177, 250, 0, 214, 7
   \            B1FA00D6
   \            07      
    316          {
    317              0x00,0xD3,0x7F,//,Set,Maxx3D,Intensity,:,5.5,%
    318              0x03,0xB1,0xFA,//,Generic,Read,(X),
    319              //0x73:,0x00,0x00,0x3C,
    320              0x00,0xD6,0x07,//,Set,Maxx3D,Mode,:,SF,44.1KHz/48KHz,,Speaker,Span,Narrow,,Low-Pass,7,dB
    321                  
    322          };
    323          #pragma location="DSP_DATA1"

   \                                 In segment DSP_DATA1, align 1
    324          const __code u8 MaxxDSP_3D_OFF[9] =
   \                     MaxxDSP_3D_OFF:
   \   000000   00D30003     DB 0, 211, 0, 3, 177, 250, 0, 214, 7
   \            B1FA00D6
   \            07      
    325          {
    326              0x00,0xD3,0x00,//,Set,Maxx3D,Intensity,:,0.0,%
    327              0x03,0xB1,0xFA,//,Generic,Read,(X),
    328              //0x73:,0x00,0x00,0x3C,
    329              0x00,0xD6,0x07,//,Set,Maxx3D,Mode,:,SF,44.1KHz/48KHz,,Speaker,Span,Narrow,,Low-Pass,7,dB
    330          };
    331          #endif
    332          
    333          
    334          /*****************************************************************************
    335           * Module    :     分BANK区刷初始化数据
    336           * Numble    :     第 1 段BANK区初始化数据
    337           *****************************************************************************/
    338          
    339          #pragma location="DSP_DATA1"

   \                                 In segment DSP_DATA1, align 1
    340          const __code u8 g_abMaxxDSPCommands_1[333] =
   \                     g_abMaxxDSPCommands_1:
   \   000000   00A50000     DB 0, 165, 0, 0, 195, 1, 0, 164, 17, 15, 191, 88, 15, 191, 88, 15, 191
   \            C30100A4
   \            110FBF58
   \            0FBF580F
   \            BF      
   \   000011   58101D3F     DB 88, 16, 29, 63, 0, 0, 0, 0, 0, 0, 0, 0, 0, 0, 0, 0, 127, 255, 255
   \            00000000
   \            00000000
   \            00000000
   \            7FFFFF  
   \   000024   7FFFFF7F     DB 127, 255, 255, 127, 255, 255, 0, 0, 0, 0, 0, 0, 0, 0, 0, 127, 255
   \            FFFF0000
   \            00000000
   \            0000007F
   \            FF      
   \   000035   FF000000     DB 255, 0, 0, 0, 127, 255, 255, 0, 200, 0, 191, 196, 197, 255, 171, 251
   \            7FFFFF00
   \            C800BFC4
   \            C5FFABFB
   \   000045   242009FF     DB 36, 32, 9, 255, 171, 250, 8, 0, 39, 255, 171, 250, 0, 0, 39, 255
   \            ABFA0800
   \            27FFABFA
   \            000027FF
   \   000055   ABFBA428     DB 171, 251, 164, 40, 41, 0, 244, 0, 3, 168, 224, 0, 0, 2, 3, 168, 225
   \            2900F400
   \            03A8E000
   \            000203A8
   \            E1      
   \   000066   00000103     DB 0, 0, 1, 3, 168, 226, 35, 121, 20, 3, 168, 227, 35, 228, 97, 3, 168
   \            A8E22379
   \            1403A8E3
   \            23E46103
   \            A8      
   \   000077   E4B8A32D     DB 228, 184, 163, 45, 3, 168, 229, 63, 53, 104, 3, 168, 230, 128, 203
   \            03A8E53F
   \            356803A8
   \            E680CB  
   \   000086   DB01F401     DB 219, 1, 244, 1, 0, 244, 0, 3, 168, 224, 0, 0, 2, 3, 168, 225, 0, 0
   \            00F40003
   \            A8E00000
   \            0203A8E1
   \            0000    
   \   000098   0103A8E7     DB 1, 3, 168, 231, 62, 180, 132, 3, 168, 232, 64, 9, 241, 3, 168, 233
   \            3EB48403
   \            A8E84009
   \            F103A8E9
   \   0000A8   814FEB03     DB 129, 79, 235, 3, 168, 234, 62, 189, 173, 3, 168, 235, 129, 79, 35, 1
   \            A8EA3EBD
   \            AD03A8EB
   \            814F2301
   \   0000B8   F40100AE     DB 244, 1, 0, 174, 0, 255, 173, 160, 0, 0, 0, 255, 173, 160, 0, 0, 1
   \            00FFADA0
   \            000000FF
   \            ADA00000
   \            01      
   \   0000C9   FFADA100     DB 255, 173, 161, 0, 8, 0, 255, 173, 162, 255, 254, 186, 255, 173, 162
   \            0800FFAD
   \            A2FFFEBA
   \            FFADA2  
   \   0000D8   FFF8EAFF     DB 255, 248, 234, 255, 173, 162, 255, 236, 2, 255, 173, 162, 255, 222
   \            ADA2FFEC
   \            02FFADA2
   \            FFDE    
   \   0000E6   F4FFADA2     DB 244, 255, 173, 162, 255, 234, 224, 255, 173, 162, 0, 51, 79, 255
   \            FFEAE0FF
   \            ADA20033
   \            4FFF    
   \   0000F4   ADA200C0     DB 173, 162, 0, 192, 198, 255, 173, 162, 1, 76, 2, 255, 173, 162, 1, 46
   \            C6FFADA2
   \            014C02FF
   \            ADA2012E
   \   000104   A7FFADA2     DB 167, 255, 173, 162, 255, 181, 63, 255, 173, 162, 252, 211, 163, 255
   \            FFB53FFF
   \            ADA2FCD3
   \            A3FF    
   \   000112   ADA2F9D3     DB 173, 162, 249, 211, 237, 255, 173, 162, 249, 86, 70, 255, 173, 162
   \            EDFFADA2
   \            F95646FF
   \            ADA2    
   \   000120   FE37F8FF     DB 254, 55, 248, 255, 173, 162, 9, 185, 180, 255, 173, 162, 26, 1, 80
   \            ADA209B9
   \            B4FFADA2
   \            1A0150  
   \   00012F   FFADA22A     DB 255, 173, 162, 42, 43, 69, 255, 173, 162, 52, 70, 122, 255, 173, 170
   \            2B45FFAD
   \            A234467A
   \            FFADAA  
   \   00013E   000200FF     DB 0, 2, 0, 255, 173, 167, 4, 68, 51, 255, 173, 160, 0, 28, 19
   \            ADA70444
   \            33FFADA0
   \            001C13  
    341          {   
    342              0x00,0xA5,0x00,//Setup,Start,(start,initialization,state),
    343              0x00,0xC3,0x01,//Set,Sample,Rate,:,44.1KHz
    344              0x00,0xA4,0x11,//Load,Mixer,Gains,-,Start,
    345              0x0F,0xBF,0x58,//M1,-,SDI0,to,Processing,path,(-0.20,dB)
    346              0x0F,0xBF,0x58,//M2,-,SDI1,to,Processing,path,(-0.20,dB)
    347              0x0F,0xBF,0x58,//M3,-,SDI2,to,Processing,path,(-0.20,dB)
    348              0x10,0x1D,0x3F,//M4,-,SDI3,to,Processing,path,(ADC),(-0.00,dB)
    349              0x00,0x00,0x00,//M5,-,SDI0,to,UnProcessing,path,(-inf)
    350              0x00,0x00,0x00,//M6,-,SDI1,to,UnProcessing,path,(-inf)
    351              0x00,0x00,0x00,//M7,-,SDI2,to,UnProcessing,path,(-inf)
    352              0x00,0x00,0x00,//M8,-,SDI3,to,UnProcessing,path,(ADC),(-inf)
    353              0x7F,0xFF,0xFF,//M9,-,SDO0,from,Processed,path,(0.00,dB)
    354              0x7F,0xFF,0xFF,//M10-,SDO1,from,Processed,path,(0.00,dB)
    355              0x7F,0xFF,0xFF,//M11-,SDO3,from,Processed,path,(DAC1/AMP),(0.00,dB)
    356              0x00,0x00,0x00,//M12-,SDO0,from,UnProcessed,path,(-inf)
    357              0x00,0x00,0x00,//M13-,SDO1,from,UnProcessed,path,(-inf)
    358              0x00,0x00,0x00,//M14-,SDO3,from,UnProcessed,path,(DAC1/AMP),(-inf)
    359              0x7F,0xFF,0xFF,//M15-,SDO2,from,Subwoofer,path,(DAC2/AMP),(0.00,dB)
    360              0x00,0x00,0x00,//M16-,SDO2,from,UnProcessed,path,(DAC2),(-inf)
    361              0x7F,0xFF,0xFF,//M17-,SDO2,from,Processed,path,(DAC2),(0.00,dB)
    362              0x00,0xC8,0x00,//Load,Mixer,Gains,-,End,
    363              0xBF,0xC4,0xC5,//Set,SSI:,,Slave,mode,,I2S,,24bit,,64,x,DCLK,
    364              //#,PLL,and,Clocks,Configuration,(verify,250usec,delay,between,PLL,commands)
    365              0xFF,0xAB,0xFB,//Set,Clock,Control,Settings,
    366              0x24,0x20,0x09,//==>,,REF=DCLK,,,CLKOUT=REF/10,,,DSP=REF/1,,,CLK256=REF/10,,,
    367              0xFF,0xAB,0xFA,//Set,PLL,Settings,
    368              0x08,0x00,0x27,//==>,,PLL,is,RESET.,,
    369              0xFF,0xAB,0xFA,//Set,PLL,Settings,
    370              0x00,0x00,0x27,//==>,,PLL,=,(REF,*,40),/,(1,*,1).,,
    371              0xFF,0xAB,0xFB,//Set,Clock,Control,Settings,
    372              0xA4,0x28,0x29,//==>,,REF=DCLK,,,CLKOUT=PLL/10,,,DSP=PLL/1,,,CLK256=PLL/10,,,
    373              0x00,0xF4,0x00,//Unknown,MaxxAudio,command,
    374              0x03,0xA8,0xE0,//Generic,Write,(Y),
    375              0x00,0x00,0x02,
    376              0x03,0xA8,0xE1,//Generic,Write,(Y),
    377              0x00,0x00,0x01,
    378              0x03,0xA8,0xE2,//Generic,Write,(Y),
    379              0x23,0x79,0x14,
    380              0x03,0xA8,0xE3,//Generic,Write,(Y),
    381              0x23,0xE4,0x61,
    382              0x03,0xA8,0xE4,//Generic,Write,(Y),
    383              0xB8,0xA3,0x2D,
    384              0x03,0xA8,0xE5,//Generic,Write,(Y),
    385              0x3F,0x35,0x68,
    386              0x03,0xA8,0xE6,//Generic,Write,(Y),
    387              0x80,0xCB,0xDB,
    388              0x01,0xF4,0x01,//Unknown,MaxxAudio,command,
    389              0x00,0xF4,0x00,//Unknown,MaxxAudio,command,
    390              0x03,0xA8,0xE0,//Generic,Write,(Y),
    391              0x00,0x00,0x02,
    392              0x03,0xA8,0xE1,//Generic,Write,(Y),
    393              0x00,0x00,0x01,
    394              0x03,0xA8,0xE7,//Generic,Write,(Y),
    395              0x3E,0xB4,0x84,
    396              0x03,0xA8,0xE8,//Generic,Write,(Y),
    397              0x40,0x09,0xF1,
    398              0x03,0xA8,0xE9,//Generic,Write,(Y),
    399              0x81,0x4F,0xEB,
    400              0x03,0xA8,0xEA,//Generic,Write,(Y),
    401              0x3E,0xBD,0xAD,
    402              0x03,0xA8,0xEB,//Generic,Write,(Y),
    403              0x81,0x4F,0x23,
    404              0x01,0xF4,0x01,//Unknown,MaxxAudio,command,
    405              0x00,0xAE,0x00,//Enable,Firmware,Watchdog,
    406              //#,Audio,PWM,and,Power,Amplifier,Initialization.,
    407              //#,Verify,12msec,delay,before,switch,to,1sec,fault,latch,time.,
    408              0xFF,0xAD,0xA0,//Set,Audio,PWM,control,
    409              0x00,0x00,0x00,
    410              0xFF,0xAD,0xA0,//Set,Audio,PWM,control,
    411              0x00,0x00,0x01,
    412              0xFF,0xAD,0xA1,//Set,Audio,PWM,Index,
    413              0x00,0x08,0x00,
    414              0xFF,0xAD,0xA2,//Set,Audio,PWM,Data,Access,
    415              0xFF,0xFE,0xBA,
    416              0xFF,0xAD,0xA2,//Set,Audio,PWM,Data,Access,
    417              0xFF,0xF8,0xEA,
    418              0xFF,0xAD,0xA2,//Set,Audio,PWM,Data,Access,
    419              0xFF,0xEC,0x02,
    420              0xFF,0xAD,0xA2,//Set,Audio,PWM,Data,Access,
    421              0xFF,0xDE,0xF4,
    422              0xFF,0xAD,0xA2,//Set,Audio,PWM,Data,Access,
    423              0xFF,0xEA,0xE0,
    424              0xFF,0xAD,0xA2,//Set,Audio,PWM,Data,Access,
    425              0x00,0x33,0x4F,
    426              0xFF,0xAD,0xA2,//Set,Audio,PWM,Data,Access,
    427              0x00,0xC0,0xC6,
    428              0xFF,0xAD,0xA2,//Set,Audio,PWM,Data,Access,
    429              0x01,0x4C,0x02,
    430              0xFF,0xAD,0xA2,//Set,Audio,PWM,Data,Access,
    431              0x01,0x2E,0xA7,
    432              0xFF,0xAD,0xA2,//Set,Audio,PWM,Data,Access,
    433              0xFF,0xB5,0x3F,
    434              0xFF,0xAD,0xA2,//Set,Audio,PWM,Data,Access,
    435              0xFC,0xD3,0xA3,
    436              0xFF,0xAD,0xA2,//Set,Audio,PWM,Data,Access,
    437              0xF9,0xD3,0xED,
    438              0xFF,0xAD,0xA2,//Set,Audio,PWM,Data,Access,
    439              0xF9,0x56,0x46,
    440              0xFF,0xAD,0xA2,//Set,Audio,PWM,Data,Access,
    441              0xFE,0x37,0xF8,
    442              0xFF,0xAD,0xA2,//Set,Audio,PWM,Data,Access,
    443              0x09,0xB9,0xB4,
    444              0xFF,0xAD,0xA2,//Set,Audio,PWM,Data,Access,
    445              0x1A,0x01,0x50,
    446              0xFF,0xAD,0xA2,//Set,Audio,PWM,Data,Access,
    447              0x2A,0x2B,0x45,
    448              0xFF,0xAD,0xA2,//Set,Audio,PWM,Data,Access,
    449              0x34,0x46,0x7A,
    450              0xFF,0xAD,0xAA,//Set,Audio,PWM,Control,Register,2,,
    451              0x00,0x02,0x00,
    452              0xFF,0xAD,0xA7,//Set,Audio,PWM,and,Power,Control,Register,
    453              0x04,0x44,0x33,
    454              0xFF,0xAD,0xA0,//Set,Audio,PWM,control,
    455              0x00,0x1C,0x13,
    456                      
    457          };
    458          
    459          /*****************************************************************************
    460           * Module    :     分BANK区刷初始化数据
    461           * Numble    :     第 3 段BANK区初始化数据
    462           *****************************************************************************/
    463          #if 1
    464          #pragma location="DSP_DATA3"

   \                                 In segment DSP_DATA3, align 1
    465          const __code u8 g_abMaxxDSPCommands_4[1260] =
   \                     g_abMaxxDSPCommands_4:
   \   000000   21C40044     DB 33, 196, 0, 68, 112, 0, 0, 3, 252, 69, 240, 0, 0, 3, 251, 13, 1, 102
   \            70000003
   \            FC45F000
   \            0003FB0D
   \            0166    
   \   000012   61F00000     DB 97, 240, 0, 0, 2, 50, 11, 225, 128, 10, 240, 128, 0, 200, 170, 87
   \            02320BE1
   \            800AF080
   \            00C8AA57
   \   000022   F40000F2     DB 244, 0, 0, 242, 0, 32, 0, 109, 10, 240, 162, 0, 2, 2, 68, 112, 0, 0
   \            0020006D
   \            0AF0A200
   \            02024470
   \            0000    
   \   000034   03FD45F0     DB 3, 253, 69, 240, 0, 0, 3, 251, 13, 1, 102, 97, 240, 0, 0, 2, 50, 11
   \            000003FB
   \            0D016661
   \            F0000002
   \            320B    
   \   000046   E1800AF0     DB 225, 128, 10, 240, 128, 0, 200, 170, 87, 244, 0, 0, 243, 0, 32, 0
   \            8000C8AA
   \            57F40000
   \            F3002000
   \   000056   6D0AF0A2     DB 109, 10, 240, 162, 0, 2, 23, 10, 112, 96, 0, 3, 182, 10, 112, 98, 0
   \            0002170A
   \            70600003
   \            B60A7062
   \            00      
   \   000067   03B660F4     DB 3, 182, 96, 244, 0, 0, 3, 183, 32, 88, 0, 70, 244, 0, 127, 255, 255
   \            000003B7
   \            20580046
   \            F4007FFF
   \            FF      
   \   000078   0AC40000     DB 10, 196, 0, 0, 2, 20, 70, 244, 0, 45, 106, 134, 78, 96, 0, 10, 240
   \            021446F4
   \            002D6A86
   \            4E60000A
   \            F0      
   \   000089   8000C8AA     DB 128, 0, 200, 170, 87, 244, 0, 0, 244, 0, 32, 0, 109, 10, 240, 162, 0
   \            57F40000
   \            F4002000
   \            6D0AF0A2
   \            00      
   \   00009A   02240AC6     DB 2, 36, 10, 198, 0, 0, 2, 31, 13, 0, 168, 96, 244, 0, 0, 2, 253, 68
   \            0000021F
   \            0D00A860
   \            F4000002
   \            FD44    
   \   0000AC   60000AF0     DB 96, 0, 10, 240, 128, 0, 200, 170, 87, 244, 0, 0, 208, 0, 32, 0, 109
   \            8000C8AA
   \            57F40000
   \            D0002000
   \            6D      
   \   0000BD   0AF0A200     DB 10, 240, 162, 0, 2, 57, 32, 206, 0, 12, 30, 144, 97, 240, 64, 0, 2
   \            023920CE
   \            000C1E90
   \            61F04000
   \            02      
   \   0000CE   5B21C400     DB 91, 33, 196, 0, 68, 112, 0, 0, 2, 211, 11, 225, 128, 69, 240, 0, 0
   \            44700000
   \            02D30BE1
   \            8045F000
   \            00      
   \   0000DF   03FB0D01     DB 3, 251, 13, 1, 102, 97, 240, 0, 0, 2, 50, 11, 225, 128, 10, 240, 128
   \            6661F000
   \            0002320B
   \            E1800AF0
   \            80      
   \   0000F0   00C8AA57     DB 0, 200, 170, 87, 244, 0, 0, 209, 0, 32, 0, 109, 10, 240, 162, 0, 2
   \            F40000D1
   \            0020006D
   \            0AF0A200
   \            02      
   \   000101   4861F000     DB 72, 97, 240, 0, 0, 2, 50, 68, 112, 0, 0, 2, 212, 69, 240, 0, 0, 3
   \            00023244
   \            70000002
   \            D445F000
   \            0003    
   \   000113   FB0D0166     DB 251, 13, 1, 102, 11, 225, 128, 10, 240, 128, 0, 200, 170, 87, 244, 0
   \            0BE1800A
   \            F08000C8
   \            AA57F400
   \   000123   00A10020     DB 0, 161, 0, 32, 0, 109, 10, 240, 162, 0, 2, 92, 97, 244, 0, 0, 3, 97
   \            006D0AF0
   \            A200025C
   \            61F40000
   \            0361    
   \   000135   61700000     DB 97, 112, 0, 0, 2, 14, 68, 112, 0, 0, 0, 65, 96, 244, 0, 0, 3, 134
   \            020E4470
   \            00000041
   \            60F40000
   \            0386    
   \   000147   60700000     DB 96, 112, 0, 0, 0, 67, 71, 244, 0, 13, 82, 201, 71, 13, 0, 10, 240
   \            004347F4
   \            000D52C9
   \            470D000A
   \            F0      
   \   000158   8000C8AA     DB 128, 0, 200, 170, 87, 244, 0, 0, 163, 0, 32, 0, 109, 10, 240, 162, 0
   \            57F40000
   \            A3002000
   \            6D0AF0A2
   \            00      
   \   000169   027061F4     DB 2, 112, 97, 244, 0, 0, 3, 97, 97, 112, 0, 0, 2, 14, 68, 112, 0, 0, 0
   \            00000361
   \            61700000
   \            020E4470
   \            000000  
   \   00017C   4160F400     DB 65, 96, 244, 0, 0, 2, 86, 96, 112, 0, 0, 0, 67, 71, 244, 0, 13, 82
   \            00025660
   \            70000000
   \            4347F400
   \            0D52    
   \   00018E   C9470D00     DB 201, 71, 13, 0, 10, 240, 128, 0, 200, 170, 87, 244, 0, 0, 164, 0, 32
   \            0AF08000
   \            C8AA57F4
   \            0000A400
   \            20      
   \   00019F   006D0AF0     DB 0, 109, 10, 240, 162, 0, 2, 132, 97, 244, 0, 0, 3, 97, 97, 112, 0, 0
   \            A2000284
   \            61F40000
   \            03616170
   \            0000    
   \   0001B1   020E4470     DB 2, 14, 68, 112, 0, 0, 0, 65, 96, 244, 0, 0, 3, 145, 96, 112, 0, 0, 0
   \            00000041
   \            60F40000
   \            03916070
   \            000000  
   \   0001C4   4347F400     DB 67, 71, 244, 0, 13, 82, 201, 71, 13, 0, 10, 240, 128, 0, 200, 170
   \            0D52C947
   \            0D000AF0
   \            8000C8AA
   \   0001D4   57F40000     DB 87, 244, 0, 0, 234, 0, 32, 0, 109, 10, 240, 162, 0, 2, 164, 96, 244
   \            EA002000
   \            6D0AF0A2
   \            0002A460
   \            F4      
   \   0001E5   0000028B     DB 0, 0, 2, 139, 95, 224, 0, 32, 0, 77, 13, 16, 74, 0, 0, 5, 10, 112
   \            5FE00020
   \            004D0D10
   \            4A000005
   \            0A70    
   \   0001F7   6100028A     DB 97, 0, 2, 138, 76, 96, 0, 10, 112, 98, 0, 2, 138, 32, 88, 0, 97, 244
   \            4C60000A
   \            70620002
   \            8A205800
   \            61F4    
   \   000209   00000377     DB 0, 0, 3, 119, 97, 112, 0, 0, 2, 14, 96, 112, 0, 0, 0, 67, 96, 244, 0
   \            61700000
   \            020E6070
   \            00000043
   \            60F400  
   \   00021C   00028A60     DB 0, 2, 138, 96, 112, 0, 0, 0, 69, 71, 244, 0, 13, 82, 201, 71, 13, 0
   \            70000000
   \            4547F400
   \            0D52C947
   \            0D00    
   \   00022E   0AF08000     DB 10, 240, 128, 0, 200, 170, 87, 244, 0, 0, 235, 0, 32, 0, 109, 10
   \            C8AA57F4
   \            0000EB00
   \            20006D0A
   \   00023E   F0A20002     DB 240, 162, 0, 2, 189, 10, 112, 98, 0, 2, 141, 96, 244, 0, 0, 2, 142
   \            BD0A7062
   \            00028D60
   \            F4000002
   \            8E      
   \   00024F   20580061     DB 32, 88, 0, 97, 244, 0, 0, 3, 119, 97, 112, 0, 0, 2, 14, 96, 112, 0
   \            F4000003
   \            77617000
   \            00020E60
   \            7000    
   \   000261   00004360     DB 0, 0, 67, 96, 244, 0, 0, 2, 141, 96, 112, 0, 0, 0, 69, 71, 244, 0
   \            F4000002
   \            8D607000
   \            00004547
   \            F400    
   \   000273   0D52C947     DB 13, 82, 201, 71, 13, 0, 10, 240, 128, 0, 200, 170, 87, 244, 0, 0
   \            0D000AF0
   \            8000C8AA
   \            57F40000
   \   000283   A6002000     DB 166, 0, 32, 0, 109, 10, 240, 162, 0, 2, 211, 97, 244, 0, 0, 3, 73
   \            6D0AF0A2
   \            0002D361
   \            F4000003
   \            49      
   \   000294   61700000     DB 97, 112, 0, 0, 2, 14, 32, 206, 0, 12, 30, 144, 71, 244, 64, 0, 0, 1
   \            020E20CE
   \            000C1E90
   \            47F44000
   \            0001    
   \   0002A6   47700000     DB 71, 112, 0, 0, 0, 65, 86, 112, 0, 0, 0, 67, 71, 244, 0, 13, 82, 201
   \            00415670
   \            00000043
   \            47F4000D
   \            52C9    
   \   0002B8   470D000A     DB 71, 13, 0, 10, 240, 128, 0, 200, 170, 87, 244, 0, 0, 167, 0, 32, 0
   \            F08000C8
   \            AA57F400
   \            00A70020
   \            00      
   \   0002C9   6D0AF0A2     DB 109, 10, 240, 162, 0, 2, 233, 97, 244, 0, 0, 3, 85, 32, 206, 0, 97
   \            0002E961
   \            F4000003
   \            5520CE00
   \            61      
   \   0002DA   70000002     DB 112, 0, 0, 2, 14, 12, 30, 144, 71, 244, 64, 0, 0, 1, 71, 112, 0, 0
   \            0E0C1E90
   \            47F44000
   \            00014770
   \            0000    
   \   0002EC   00415470     DB 0, 65, 84, 112, 0, 0, 0, 67, 71, 244, 0, 13, 82, 201, 71, 13, 0, 10
   \            00000043
   \            47F4000D
   \            52C9470D
   \            000A    
   \   0002FE   F08000C8     DB 240, 128, 0, 200, 170, 87, 244, 0, 0, 168, 0, 32, 0, 109, 10, 240
   \            AA57F400
   \            00A80020
   \            006D0AF0
   \   00030E   A20002FF     DB 162, 0, 2, 255, 97, 244, 0, 0, 3, 97, 32, 206, 0, 97, 112, 0, 0, 2
   \            61F40000
   \            036120CE
   \            00617000
   \            0002    
   \   000320   0E0C1E90     DB 14, 12, 30, 144, 71, 244, 64, 0, 0, 1, 71, 112, 0, 0, 0, 65, 86, 112
   \            47F44000
   \            00014770
   \            00000041
   \            5670    
   \   000332   00000043     DB 0, 0, 0, 67, 71, 244, 0, 13, 82, 201, 71, 13, 0, 10, 240, 128, 0
   \            47F4000D
   \            52C9470D
   \            000AF080
   \            00      
   \   000343   C8AA57F4     DB 200, 170, 87, 244, 0, 0, 171, 0, 32, 0, 109, 10, 240, 162, 0, 3, 23
   \            0000AB00
   \            20006D0A
   \            F0A20003
   \            17      
   \   000354   61F40000     DB 97, 244, 0, 0, 3, 85, 32, 206, 0, 97, 112, 0, 0, 2, 14, 12, 30, 144
   \            035520CE
   \            00617000
   \            00020E0C
   \            1E90    
   \   000366   46F440FF     DB 70, 244, 64, 255, 0, 0, 71, 244, 82, 0, 0, 1, 71, 112, 0, 0, 0, 65
   \            000047F4
   \            52000001
   \            47700000
   \            0041    
   \   000378   54700000     DB 84, 112, 0, 0, 0, 67, 71, 244, 0, 13, 82, 201, 71, 13, 0, 10, 240
   \            004347F4
   \            000D52C9
   \            470D000A
   \            F0      
   \   000389   8000C8AA     DB 128, 0, 200, 170, 87, 244, 0, 0, 173, 0, 32, 0, 109, 10, 240, 162, 0
   \            57F40000
   \            AD002000
   \            6D0AF0A2
   \            00      
   \   00039A   032F61F4     DB 3, 47, 97, 244, 0, 0, 3, 97, 32, 206, 0, 97, 112, 0, 0, 2, 14, 12
   \            00000361
   \            20CE0061
   \            70000002
   \            0E0C    
   \   0003AC   1E9046F4     DB 30, 144, 70, 244, 64, 255, 0, 0, 71, 244, 82, 0, 0, 1, 71, 112, 0, 0
   \            40FF0000
   \            47F45200
   \            00014770
   \            0000    
   \   0003BE   00415470     DB 0, 65, 84, 112, 0, 0, 0, 67, 71, 244, 0, 13, 82, 201, 71, 13, 0, 10
   \            00000043
   \            47F4000D
   \            52C9470D
   \            000A    
   \   0003D0   F08000C8     DB 240, 128, 0, 200, 170, 10, 240, 128, 0, 196, 123, 5, 244, 32, 255
   \            AA0AF080
   \            00C47B05
   \            F420FF  
   \   0003DF   FFFF60F0     DB 255, 255, 96, 240, 0, 0, 0, 66, 86, 143, 0, 71, 244, 0, 0, 0, 1, 87
   \            00000042
   \            568F0047
   \            F4000000
   \            0157    
   \   0003F1   F0000000     DB 240, 0, 0, 0, 64, 7, 88, 140, 96, 112, 124, 0, 0, 66, 10, 240, 162
   \            4007588C
   \            60707C00
   \            00420AF0
   \            A2      
   \   000402   00034661     DB 0, 3, 70, 97, 244, 0, 0, 1, 205, 97, 112, 0, 0, 2, 14, 71, 244, 0, 0
   \            F4000001
   \            CD617000
   \            00020E47
   \            F40000  
   \   000415   0000470D     DB 0, 0, 71, 13, 0, 87, 112, 0, 0, 0, 64, 0, 0, 12, 5, 244, 32, 255
   \            00577000
   \            00004000
   \            000C05F4
   \            20FF    
   \   000427   FFFF568F     DB 255, 255, 86, 143, 0, 96, 240, 0, 0, 0, 67, 71, 244, 0, 0, 0, 1, 87
   \            0060F000
   \            00004347
   \            F4000000
   \            0157    
   \   000439   F0000000     DB 240, 0, 0, 0, 65, 7, 88, 140, 10, 240, 128, 0, 3, 105, 5, 244, 32
   \            4107588C
   \            0AF08000
   \            036905F4
   \            20      
   \   00044A   FFFFFF47     DB 255, 255, 255, 71, 244, 0, 0, 0, 1, 69, 143, 0, 96, 240, 0, 0, 0, 67
   \            F4000000
   \            01458F00
   \            60F00000
   \            0043    
   \   00045C   57F00000     DB 87, 240, 0, 0, 0, 65, 69, 88, 0, 10, 240, 128, 0, 3, 105, 71, 244, 0
   \            00414558
   \            000AF080
   \            00036947
   \            F400    
   \   00046E   00000145     DB 0, 0, 1, 69, 143, 0, 96, 240, 0, 0, 0, 67, 87, 240, 0, 0, 0, 65, 77
   \            8F0060F0
   \            00000043
   \            57F00000
   \            00414D  
   \   000481   58006070     DB 88, 0, 96, 112, 124, 0, 0, 67, 10, 240, 162, 0, 3, 116, 97, 244, 0
   \            7C000043
   \            0AF0A200
   \            037461F4
   \            00      
   \   000492   0001CD61     DB 0, 1, 205, 97, 112, 0, 0, 2, 14, 71, 244, 0, 0, 0, 0, 71, 13, 0, 87
   \            70000002
   \            0E47F400
   \            00000047
   \            0D0057  
   \   0004A5   70000000     DB 112, 0, 0, 0, 65, 0, 0, 12, 71, 244, 0, 0, 0, 1, 71, 112, 0, 0, 0
   \            4100000C
   \            47F40000
   \            00014770
   \            000000  
   \   0004B8   4161F400     DB 65, 97, 244, 0, 0, 3, 97, 11, 225, 128, 96, 240, 0, 0, 0, 69, 10, 96
   \            0003610B
   \            E18060F0
   \            00000045
   \            0A60    
   \   0004CA   6000000C     DB 96, 0, 0, 12, 0, 172, 0, 0, 240, 0, 3, 177, 250, 1, 241, 194, 3, 177
   \            00AC0000
   \            F00003B1
   \            FA01F1C2
   \            03B1    
   \   0004DC   FA00F20A     DB 250, 0, 242, 10, 3, 177, 250, 0, 243, 0, 0, 244, 1, 0, 172, 0
   \            03B1FA00
   \            F30000F4
   \            0100AC00
    466          {    
    467          #if 1       
    468              0x21,0xC4,0x00,
    469              0x44,0x70,0x00,
    470              0x00,0x03,0xFC,
    471              0x45,0xF0,0x00,
    472              0x00,0x03,0xFB,
    473              0x0D,0x01,0x66,
    474              0x61,0xF0,0x00,
    475              0x00,0x02,0x32,
    476              0x0B,0xE1,0x80,
    477              0x0A,0xF0,0x80,
    478              0x00,0xC8,0xAA,
    479              0x57,0xF4,0x00,
    480              0x00,0xF2,0x00,
    481              0x20,0x00,0x6D,
    482              0x0A,0xF0,0xA2,
    483              0x00,0x02,0x02,
    484              0x44,0x70,0x00,
    485              0x00,0x03,0xFD,
    486              0x45,0xF0,0x00,
    487              0x00,0x03,0xFB,
    488              0x0D,0x01,0x66,
    489              0x61,0xF0,0x00,
    490              0x00,0x02,0x32,
    491              0x0B,0xE1,0x80,
    492              0x0A,0xF0,0x80,
    493              0x00,0xC8,0xAA,
    494              0x57,0xF4,0x00,
    495              0x00,0xF3,0x00,
    496              0x20,0x00,0x6D,
    497              0x0A,0xF0,0xA2,
    498              0x00,0x02,0x17,
    499              0x0A,0x70,0x60,
    500              0x00,0x03,0xB6,
    501              0x0A,0x70,0x62,
    502              0x00,0x03,0xB6,
    503              0x60,0xF4,0x00,
    504              0x00,0x03,0xB7,
    505              0x20,0x58,0x00,
    506              0x46,0xF4,0x00,
    507              0x7F,0xFF,0xFF,
    508              0x0A,0xC4,0x00,
    509              0x00,0x02,0x14,
    510              0x46,0xF4,0x00,
    511              0x2D,0x6A,0x86,
    512              0x4E,0x60,0x00,
    513              0x0A,0xF0,0x80,
    514              0x00,0xC8,0xAA,
    515              0x57,0xF4,0x00,
    516              0x00,0xF4,0x00,
    517              0x20,0x00,0x6D,
    518              0x0A,0xF0,0xA2,
    519              0x00,0x02,0x24,
    520              0x0A,0xC6,0x00,
    521              0x00,0x02,0x1F,
    522              0x0D,0x00,0xA8,
    523              0x60,0xF4,0x00,
    524              0x00,0x02,0xFD,
    525              0x44,0x60,0x00,
    526              0x0A,0xF0,0x80,
    527              0x00,0xC8,0xAA,
    528              0x57,0xF4,0x00,
    529              0x00,0xD0,0x00,
    530              0x20,0x00,0x6D,
    531              0x0A,0xF0,0xA2,
    532              0x00,0x02,0x39,
    533              0x20,0xCE,0x00,
    534              0x0C,0x1E,0x90,
    535              0x61,0xF0,0x40,
    536              0x00,0x02,0x5B,
    537              0x21,0xC4,0x00,
    538              0x44,0x70,0x00,
    539              0x00,0x02,0xD3,
    540              0x0B,0xE1,0x80,
    541              0x45,0xF0,0x00,
    542              0x00,0x03,0xFB,
    543              0x0D,0x01,0x66,
    544              0x61,0xF0,0x00,
    545              0x00,0x02,0x32,
    546              0x0B,0xE1,0x80,
    547              0x0A,0xF0,0x80,
    548              0x00,0xC8,0xAA,
    549              0x57,0xF4,0x00,
    550              0x00,0xD1,0x00,
    551              0x20,0x00,0x6D,
    552              0x0A,0xF0,0xA2,
    553              0x00,0x02,0x48,
    554              0x61,0xF0,0x00,
    555              0x00,0x02,0x32,
    556              0x44,0x70,0x00,
    557              0x00,0x02,0xD4,
    558              0x45,0xF0,0x00,
    559              0x00,0x03,0xFB,
    560              0x0D,0x01,0x66,
    561              0x0B,0xE1,0x80,
    562              0x0A,0xF0,0x80,
    563              0x00,0xC8,0xAA,
    564              0x57,0xF4,0x00,
    565              0x00,0xA1,0x00,
    566              0x20,0x00,0x6D,
    567              0x0A,0xF0,0xA2,
    568              0x00,0x02,0x5C,
    569              0x61,0xF4,0x00,
    570              0x00,0x03,0x61,
    571              0x61,0x70,0x00,
    572              0x00,0x02,0x0E,
    573              0x44,0x70,0x00,
    574              0x00,0x00,0x41,
    575              0x60,0xF4,0x00,
    576              0x00,0x03,0x86,
    577              0x60,0x70,0x00,
    578              0x00,0x00,0x43,
    579              0x47,0xF4,0x00,
    580              0x0D,0x52,0xC9,
    581              0x47,0x0D,0x00,
    582              0x0A,0xF0,0x80,
    583              0x00,0xC8,0xAA,
    584              0x57,0xF4,0x00,
    585              0x00,0xA3,0x00,
    586              0x20,0x00,0x6D,
    587              0x0A,0xF0,0xA2,
    588              0x00,0x02,0x70,
    589              0x61,0xF4,0x00,
    590              0x00,0x03,0x61,
    591              0x61,0x70,0x00,
    592              0x00,0x02,0x0E,
    593              0x44,0x70,0x00,
    594              0x00,0x00,0x41,
    595              0x60,0xF4,0x00,
    596              0x00,0x02,0x56,
    597              0x60,0x70,0x00,
    598              0x00,0x00,0x43,
    599              0x47,0xF4,0x00,
    600              0x0D,0x52,0xC9,
    601              0x47,0x0D,0x00,
    602              0x0A,0xF0,0x80,
    603              0x00,0xC8,0xAA,
    604              0x57,0xF4,0x00,
    605              0x00,0xA4,0x00,
    606              0x20,0x00,0x6D,
    607              0x0A,0xF0,0xA2,
    608              0x00,0x02,0x84,
    609              0x61,0xF4,0x00,
    610              0x00,0x03,0x61,
    611              0x61,0x70,0x00,
    612              0x00,0x02,0x0E,
    613              0x44,0x70,0x00,
    614              0x00,0x00,0x41,
    615              0x60,0xF4,0x00,
    616              0x00,0x03,0x91,
    617              0x60,0x70,0x00,
    618              0x00,0x00,0x43,
    619              0x47,0xF4,0x00,
    620              0x0D,0x52,0xC9,
    621              0x47,0x0D,0x00,
    622              0x0A,0xF0,0x80,
    623              0x00,0xC8,0xAA,
    624              0x57,0xF4,0x00,
    625              0x00,0xEA,0x00,
    626              0x20,0x00,0x6D,
    627              0x0A,0xF0,0xA2,
    628              0x00,0x02,0xA4,
    629              0x60,0xF4,0x00,
    630              0x00,0x02,0x8B,
    631              0x5F,0xE0,0x00,
    632              0x20,0x00,0x4D,
    633              0x0D,0x10,0x4A,
    634              0x00,0x00,0x05,
    635              0x0A,0x70,0x61,
    636              0x00,0x02,0x8A,
    637              0x4C,0x60,0x00,
    638              0x0A,0x70,0x62,
    639              0x00,0x02,0x8A,
    640              0x20,0x58,0x00,
    641              0x61,0xF4,0x00,
    642              0x00,0x03,0x77,
    643              0x61,0x70,0x00,
    644              0x00,0x02,0x0E,
    645              0x60,0x70,0x00,
    646              0x00,0x00,0x43,
    647              0x60,0xF4,0x00,
    648              0x00,0x02,0x8A,
    649              0x60,0x70,0x00,
    650              0x00,0x00,0x45,
    651              0x47,0xF4,0x00,
    652              0x0D,0x52,0xC9,
    653              0x47,0x0D,0x00,
    654              0x0A,0xF0,0x80,
    655              0x00,0xC8,0xAA,
    656              0x57,0xF4,0x00,
    657              0x00,0xEB,0x00,
    658              0x20,0x00,0x6D,
    659              0x0A,0xF0,0xA2,
    660              0x00,0x02,0xBD,
    661              0x0A,0x70,0x62,
    662              0x00,0x02,0x8D,
    663              0x60,0xF4,0x00,
    664              0x00,0x02,0x8E,
    665              0x20,0x58,0x00,
    666              0x61,0xF4,0x00,
    667              0x00,0x03,0x77,
    668              0x61,0x70,0x00,
    669              0x00,0x02,0x0E,
    670              0x60,0x70,0x00,
    671              0x00,0x00,0x43,
    672              0x60,0xF4,0x00,
    673              0x00,0x02,0x8D,
    674              0x60,0x70,0x00,
    675              0x00,0x00,0x45,
    676              0x47,0xF4,0x00,
    677              0x0D,0x52,0xC9,
    678              0x47,0x0D,0x00,
    679              0x0A,0xF0,0x80,
    680              0x00,0xC8,0xAA,
    681              0x57,0xF4,0x00,
    682              0x00,0xA6,0x00,
    683              0x20,0x00,0x6D,
    684              0x0A,0xF0,0xA2,
    685              0x00,0x02,0xD3,
    686              0x61,0xF4,0x00,
    687              0x00,0x03,0x49,
    688              0x61,0x70,0x00,
    689              0x00,0x02,0x0E,
    690              0x20,0xCE,0x00,
    691              0x0C,0x1E,0x90,
    692              0x47,0xF4,0x40,
    693              0x00,0x00,0x01,
    694              0x47,0x70,0x00,
    695              0x00,0x00,0x41,
    696              0x56,0x70,0x00,
    697              0x00,0x00,0x43,
    698              0x47,0xF4,0x00,
    699              0x0D,0x52,0xC9,
    700              0x47,0x0D,0x00,
    701              0x0A,0xF0,0x80,
    702              0x00,0xC8,0xAA,
    703              0x57,0xF4,0x00,
    704              0x00,0xA7,0x00,
    705              0x20,0x00,0x6D,
    706              0x0A,0xF0,0xA2,
    707              0x00,0x02,0xE9,
    708              0x61,0xF4,0x00,
    709              0x00,0x03,0x55,
    710              0x20,0xCE,0x00,
    711              0x61,0x70,0x00,
    712              0x00,0x02,0x0E,
    713              0x0C,0x1E,0x90,
    714              0x47,0xF4,0x40,
    715              0x00,0x00,0x01,
    716              0x47,0x70,0x00,
    717              0x00,0x00,0x41,
    718              0x54,0x70,0x00,
    719              0x00,0x00,0x43,
    720              0x47,0xF4,0x00,
    721              0x0D,0x52,0xC9,
    722              0x47,0x0D,0x00,
    723              0x0A,0xF0,0x80,
    724              0x00,0xC8,0xAA,
    725              0x57,0xF4,0x00,
    726              0x00,0xA8,0x00,
    727              0x20,0x00,0x6D,
    728              0x0A,0xF0,0xA2,
    729              0x00,0x02,0xFF,
    730              0x61,0xF4,0x00,
    731              0x00,0x03,0x61,
    732              0x20,0xCE,0x00,
    733              0x61,0x70,0x00,
    734              0x00,0x02,0x0E,
    735              0x0C,0x1E,0x90,
    736              0x47,0xF4,0x40,
    737              0x00,0x00,0x01,
    738              0x47,0x70,0x00,
    739              0x00,0x00,0x41,
    740              0x56,0x70,0x00,
    741              0x00,0x00,0x43,
    742              0x47,0xF4,0x00,
    743              0x0D,0x52,0xC9,
    744              0x47,0x0D,0x00,
    745              0x0A,0xF0,0x80,
    746              0x00,0xC8,0xAA,
    747              0x57,0xF4,0x00,
    748              0x00,0xAB,0x00,
    749              0x20,0x00,0x6D,
    750              0x0A,0xF0,0xA2,
    751              0x00,0x03,0x17,
    752              0x61,0xF4,0x00,
    753              0x00,0x03,0x55,
    754              0x20,0xCE,0x00,
    755              0x61,0x70,0x00,
    756              0x00,0x02,0x0E,
    757              0x0C,0x1E,0x90,
    758              0x46,0xF4,0x40,
    759              0xFF,0x00,0x00,
    760              0x47,0xF4,0x52,
    761              0x00,0x00,0x01,
    762              0x47,0x70,0x00,
    763              0x00,0x00,0x41,
    764              0x54,0x70,0x00,
    765              0x00,0x00,0x43,
    766              0x47,0xF4,0x00,
    767              0x0D,0x52,0xC9,
    768              0x47,0x0D,0x00,
    769              0x0A,0xF0,0x80,
    770              0x00,0xC8,0xAA,
    771              0x57,0xF4,0x00,
    772              0x00,0xAD,0x00,
    773              0x20,0x00,0x6D,
    774              0x0A,0xF0,0xA2,
    775              0x00,0x03,0x2F,
    776              0x61,0xF4,0x00,
    777              0x00,0x03,0x61,
    778              0x20,0xCE,0x00,
    779              0x61,0x70,0x00,
    780              0x00,0x02,0x0E,
    781              0x0C,0x1E,0x90,
    782              0x46,0xF4,0x40,
    783              0xFF,0x00,0x00,
    784              0x47,0xF4,0x52,
    785              0x00,0x00,0x01,
    786              0x47,0x70,0x00,
    787              0x00,0x00,0x41,
    788              0x54,0x70,0x00,
    789              0x00,0x00,0x43,
    790              0x47,0xF4,0x00,
    791              0x0D,0x52,0xC9,
    792              0x47,0x0D,0x00,
    793              0x0A,0xF0,0x80,
    794              0x00,0xC8,0xAA,
    795              0x0A,0xF0,0x80,
    796              0x00,0xC4,0x7B,
    797              0x05,0xF4,0x20,
    798              0xFF,0xFF,0xFF,
    799              0x60,0xF0,0x00,
    800              0x00,0x00,0x42,
    801              0x56,0x8F,0x00,
    802              0x47,0xF4,0x00,
    803              0x00,0x00,0x01,
    804              0x57,0xF0,0x00,
    805              0x00,0x00,0x40,
    806              0x07,0x58,0x8C,
    807              0x60,0x70,0x7C,
    808              0x00,0x00,0x42,
    809              0x0A,0xF0,0xA2,
    810              0x00,0x03,0x46,
    811              0x61,0xF4,0x00,
    812              0x00,0x01,0xCD,
    813              0x61,0x70,0x00,
    814              0x00,0x02,0x0E,
    815              0x47,0xF4,0x00,
    816              0x00,0x00,0x00,
    817              0x47,0x0D,0x00,
    818              0x57,0x70,0x00,
    819              0x00,0x00,0x40,
    820              0x00,0x00,0x0C,
    821              0x05,0xF4,0x20,
    822              0xFF,0xFF,0xFF,
    823              0x56,0x8F,0x00,
    824              0x60,0xF0,0x00,
    825              0x00,0x00,0x43,
    826              0x47,0xF4,0x00,
    827              0x00,0x00,0x01,
    828              0x57,0xF0,0x00,
    829              0x00,0x00,0x41,
    830              0x07,0x58,0x8C,
    831              0x0A,0xF0,0x80,
    832              0x00,0x03,0x69,
    833              0x05,0xF4,0x20,
    834              0xFF,0xFF,0xFF,
    835              0x47,0xF4,0x00,
    836              0x00,0x00,0x01,
    837              0x45,0x8F,0x00,
    838              0x60,0xF0,0x00,
    839              0x00,0x00,0x43,
    840              0x57,0xF0,0x00,
    841              0x00,0x00,0x41,
    842              0x45,0x58,0x00,
    843              0x0A,0xF0,0x80,
    844              0x00,0x03,0x69,
    845              0x47,0xF4,0x00,
    846              0x00,0x00,0x01,
    847              0x45,0x8F,0x00,
    848              0x60,0xF0,0x00,
    849              0x00,0x00,0x43,
    850              0x57,0xF0,0x00,
    851              0x00,0x00,0x41,
    852              0x4D,0x58,0x00,
    853              0x60,0x70,0x7C,
    854              0x00,0x00,0x43,
    855              0x0A,0xF0,0xA2,
    856              0x00,0x03,0x74,
    857              0x61,0xF4,0x00,
    858              0x00,0x01,0xCD,
    859              0x61,0x70,0x00,
    860              0x00,0x02,0x0E,
    861              0x47,0xF4,0x00,
    862              0x00,0x00,0x00,
    863              0x47,0x0D,0x00,
    864              0x57,0x70,0x00,
    865              0x00,0x00,0x41,
    866              0x00,0x00,0x0C,
    867              0x47,0xF4,0x00,
    868              0x00,0x00,0x01,
    869              0x47,0x70,0x00,
    870              0x00,0x00,0x41,
    871              0x61,0xF4,0x00,
    872              0x00,0x03,0x61,
    873              0x0B,0xE1,0x80,
    874              0x60,0xF0,0x00,
    875              0x00,0x00,0x45,
    876              0x0A,0x60,0x60,
    877              0x00,0x00,0x0C,
    878              0x00,0xAC,0x00,//Setup,Completed,(end,initialization,state,and,start,audio,processing,state),
    879              //---------------------------------------------
    880              0x00,0xF0,0x00,//Disable,MaxxVolume,to,MaxxBass,Correlation,
    881              0x03,0xB1,0xFA,//Generic,Read,(X),
    882              //I2C,R,0x73:,0x00,0x00,0x26,
    883              0x01,0xF1,0xC2,//Correlation,Threshold,
    884              0x03,0xB1,0xFA,//Generic,Read,(X),
    885              //I2C,R,0x73:,0x00,0x00,0x26,
    886              0x00,0xF2,0x0A,//Correlation,Ratio,
    887              0x03,0xB1,0xFA,//Generic,Read,(X),
    888              //I2C,R,0x73:,0x00,0x00,0x26,
    889              0x00,0xF3,0x00,//Disable,Midnight,Mode,
    890              0x00,0xF4,0x01,//Unknown,MaxxAudio,command,
    891              0x00,0xAC,0x00,//Setup,Completed,(end,initialization,state,and,start,audio,processing,state),
    892              //---------------------------------------------
    893          #endif
    894          };
    895          #endif
    896          
    897          /*****************************************************************************
    898           * Module    :     分BANK区刷初始化数据
    899           * Numble    :     第 2 段BANK区初始化数据
    900           *****************************************************************************/
    901           
    902          #pragma location="DSP_DATA2" //837

   \                                 In segment DSP_DATA2, align 1
    903          const __code u8 g_abMaxxDSPCommands_2[843] =
   \                     g_abMaxxDSPCommands_2:
   \   000000   FFABF300     DB 255, 171, 243, 0, 1, 200, 255, 173, 148, 0, 0, 2, 255, 173, 147, 255
   \            01C8FFAD
   \            94000002
   \            FFAD93FF
   \   000010   FFFFFFAB     DB 255, 255, 255, 171, 242, 255, 255, 255, 255, 171, 219, 0, 0, 0, 255
   \            F2FFFFFF
   \            FFABDB00
   \            0000FF  
   \   00001F   ABDC0000     DB 171, 220, 0, 0, 0, 255, 171, 243, 0, 9, 200, 255, 171, 218, 0, 63
   \            00FFABF3
   \            0009C8FF
   \            ABDA003F
   \   00002F   7F00C201     DB 127, 0, 194, 1, 0, 201, 120, 0, 223, 30, 0, 219, 143, 0, 219, 143, 0
   \            00C97800
   \            DF1E00DB
   \            8F00DB8F
   \            00      
   \   000040   C70000E0     DB 199, 0, 0, 224, 10, 0, 213, 82, 0, 207, 5, 0, 225, 82, 0, 203, 1, 0
   \            0A00D552
   \            00CF0500
   \            E15200CB
   \            0100    
   \   000052   E22F00E3     DB 226, 47, 0, 227, 128, 0, 217, 106, 0, 229, 47, 0, 228, 112, 0, 215
   \            8000D96A
   \            00E52F00
   \            E47000D7
   \   000062   8001D09F     DB 128, 1, 208, 159, 3, 177, 250, 0, 198, 1, 0, 221, 1, 0, 212, 0, 0
   \            03B1FA00
   \            C60100DD
   \            0100D400
   \            00      
   \   000073   DA0000DC     DB 218, 0, 0, 220, 26, 0, 161, 5, 0, 0, 0, 0, 0, 0, 0, 0, 10, 0, 0, 13
   \            1A00A105
   \            00000000
   \            00000000
   \            0A00000D
   \   000087   00004000     DB 0, 0, 64, 0, 216, 0, 0, 161, 5, 0, 0, 1, 0, 0, 0, 0, 0, 38, 0, 0, 13
   \            D80000A1
   \            05000001
   \            00000000
   \            00260000
   \            0D      
   \   00009C   00003A00     DB 0, 0, 58, 0, 216, 0, 0, 161, 5, 0, 0, 2, 0, 0, 4, 0, 0, 29, 0, 0, 23
   \            D80000A1
   \            05000002
   \            00000400
   \            001D0000
   \            17      
   \   0000B1   00004300     DB 0, 0, 67, 0, 216, 0, 0, 161, 5, 0, 0, 3, 0, 0, 0, 0, 0, 52, 0, 0, 58
   \            D80000A1
   \            05000003
   \            00000000
   \            00340000
   \            3A      
   \   0000C6   00002400     DB 0, 0, 36, 0, 216, 0, 0, 161, 5, 0, 0, 4, 0, 0, 0, 0, 0, 60, 0, 0, 58
   \            D80000A1
   \            05000004
   \            00000000
   \            003C0000
   \            3A      
   \   0000DB   00003300     DB 0, 0, 51, 0, 216, 0, 0, 161, 5, 0, 0, 5, 0, 0, 0, 0, 0, 72, 0, 0, 58
   \            D80000A1
   \            05000005
   \            00000000
   \            00480000
   \            3A      
   \   0000F0   00003500     DB 0, 0, 53, 0, 216, 0, 0, 161, 5, 0, 0, 6, 0, 0, 0, 0, 0, 84, 0, 0, 58
   \            D80000A1
   \            05000006
   \            00000000
   \            00540000
   \            3A      
   \   000105   00003800     DB 0, 0, 56, 0, 216, 0, 0, 161, 5, 0, 0, 7, 0, 0, 0, 0, 0, 96, 0, 0, 58
   \            D80000A1
   \            05000007
   \            00000000
   \            00600000
   \            3A      
   \   00011A   00003C00     DB 0, 0, 60, 0, 216, 0, 0, 161, 5, 0, 0, 8, 0, 0, 0, 0, 0, 108, 0, 0
   \            D80000A1
   \            05000008
   \            00000000
   \            006C0000
   \   00012E   3A00003C     DB 58, 0, 0, 60, 0, 216, 0, 0, 161, 5, 0, 0, 9, 0, 0, 2, 0, 0, 120, 0
   \            00D80000
   \            A1050000
   \            09000002
   \            00007800
   \   000142   00160000     DB 0, 22, 0, 0, 58, 0, 216, 0, 0, 207, 1, 0, 209, 0, 0, 209, 9, 0, 209
   \            3A00D800
   \            00CF0100
   \            D10000D1
   \            0900D1  
   \   000155   1200D11B     DB 18, 0, 209, 27, 0, 209, 36, 0, 209, 45, 0, 209, 54, 0, 209, 63, 0
   \            00D12400
   \            D12D00D1
   \            3600D13F
   \            00      
   \   000166   D14800D1     DB 209, 72, 0, 209, 76, 0, 209, 18, 3, 177, 250, 0, 207, 1, 0, 210, 25
   \            4C00D112
   \            03B1FA00
   \            CF0100D2
   \            19      
   \   000177   00CF0100     DB 0, 207, 1, 0, 211, 0, 0, 214, 0, 0, 207, 1, 0, 232, 63, 3, 177, 250
   \            D30000D6
   \            0000CF01
   \            00E83F03
   \            B1FA    
   \   000189   00E94C03     DB 0, 233, 76, 3, 177, 250, 0, 207, 1, 7, 170, 4, 3, 162, 66, 97, 244
   \            B1FA00CF
   \            0107AA04
   \            03A24261
   \            F4      
   \   00019A   00000069     DB 0, 0, 0, 105, 97, 112, 0, 0, 2, 90, 97, 244, 0, 0, 0, 124, 97, 112
   \            61700000
   \            025A61F4
   \            0000007C
   \            6170    
   \   0001AC   00000249     DB 0, 0, 2, 73, 97, 244, 0, 0, 1, 205, 97, 112, 0, 0, 2, 14, 96, 244, 0
   \            61F40000
   \            01CD6170
   \            0000020E
   \            60F400  
   \   0001BF   00000E45     DB 0, 0, 14, 69, 244, 0, 11, 240, 128, 68, 244, 0, 0, 1, 134, 7, 88
   \            F4000BF0
   \            8044F400
   \            00018607
   \            58      
   \   0001D0   85075884     DB 133, 7, 88, 132, 11, 240, 128, 0, 0, 168, 97, 244, 0, 0, 0, 176, 97
   \            0BF08000
   \            00A861F4
   \            000000B0
   \            61      
   \   0001E1   70000002     DB 112, 0, 0, 2, 41, 11, 240, 128, 0, 1, 85, 70, 244, 0, 127, 255, 255
   \            290BF080
   \            00015546
   \            F4007FFF
   \            FF      
   \   0001F2   4E700000     DB 78, 112, 0, 0, 3, 181, 100, 244, 0, 0, 3, 183, 96, 244, 0, 0, 3, 7
   \            03B564F4
   \            000003B7
   \            60F40000
   \            0307    
   \   000204   46F40000     DB 70, 244, 0, 0, 0, 17, 78, 100, 0, 70, 96, 0, 0, 0, 12, 10, 196, 38
   \            00114E64
   \            00466000
   \            00000C0A
   \            C426    
   \   000216   00D48F61     DB 0, 212, 143, 97, 240, 0, 0, 2, 107, 11, 225, 128, 87, 240, 0, 0, 1
   \            F0000002
   \            6B0BE180
   \            57F00000
   \            01      
   \   000227   A844F000     DB 168, 68, 240, 0, 0, 1, 162, 31, 176, 65, 0, 1, 160, 32, 0, 7, 2, 144
   \            0001A21F
   \            B0410001
   \            A0200007
   \            0290    
   \   000239   00200079     DB 0, 32, 0, 121, 32, 0, 7, 2, 144, 0, 32, 0, 121, 10, 240, 128, 0, 212
   \            20000702
   \            90002000
   \            790AF080
   \            00D4    
   \   00024B   0B6CF000     DB 11, 108, 240, 0, 0, 2, 84, 116, 244, 0, 0, 0, 10, 32, 76, 0, 78, 228
   \            00025474
   \            F4000000
   \            0A204C00
   \            4EE4    
   \   00025D   0020CF00     DB 0, 32, 207, 0, 108, 240, 0, 0, 2, 84, 116, 244, 0, 0, 0, 3, 32, 76
   \            6CF00000
   \            025474F4
   \            00000003
   \            204C    
   \   00026F   004EE400     DB 0, 78, 228, 0, 32, 206, 0, 32, 0, 13, 13, 16, 73, 0, 0, 28, 87, 240
   \            20CE0020
   \            000D0D10
   \            4900001C
   \            57F0    
   \   000281   000002D8     DB 0, 0, 2, 216, 32, 0, 19, 86, 189, 0, 1, 65, 133, 10, 240, 162, 0, 0
   \            20001356
   \            BD000141
   \            850AF0A2
   \            0000    
   \   000293   9657F000     DB 150, 87, 240, 0, 0, 2, 218, 70, 244, 0, 0, 0, 1, 32, 0, 88, 33, 229
   \            0002DA46
   \            F4000000
   \            01200058
   \            21E5    
   \   0002A5   3A200068     DB 58, 32, 0, 104, 71, 244, 0, 0, 22, 0, 70, 240, 120, 0, 0, 73, 32, 0
   \            47F40000
   \            160046F0
   \            78000049
   \            2000    
   \   0002B7   5821F300     DB 88, 33, 243, 0, 78, 219, 0, 78, 92, 0, 78, 219, 0, 78, 92, 0, 78
   \            4EDB004E
   \            5C004EDB
   \            004E5C00
   \            4E      
   \   0002C8   DB004E64     DB 219, 0, 78, 100, 0, 0, 0, 12, 32, 0, 19, 96, 244, 0, 0, 2, 253, 86
   \            0000000C
   \            20001360
   \            F4000002
   \            FD56    
   \   0002DA   60000608     DB 96, 0, 6, 8, 128, 0, 0, 174, 86, 88, 0, 0, 0, 12, 86, 240, 0, 0, 1
   \            800000AE
   \            56580000
   \            000C56F0
   \            000001  
   \   0002ED   B957F022     DB 185, 87, 240, 34, 0, 1, 186, 86, 112, 42, 0, 1, 160, 87, 112, 0, 0
   \            0001BA56
   \            702A0001
   \            A0577000
   \            00      
   \   0002FE   01A26CF0     DB 1, 162, 108, 240, 0, 0, 2, 83, 60, 0, 0, 97, 240, 0, 0, 2, 46, 32
   \            00000253
   \            3C000061
   \            F0000002
   \            2E20    
   \   000310   4C003054     DB 76, 0, 48, 84, 0, 68, 240, 0, 0, 0, 71, 11, 225, 128, 108, 240, 0, 0
   \            0044F000
   \            0000470B
   \            E1806CF0
   \            0000    
   \   000322   02533C03     DB 2, 83, 60, 3, 0, 97, 240, 0, 0, 2, 67, 32, 76, 0, 48, 98, 0, 68, 240
   \            0061F000
   \            00024320
   \            4C003062
   \            0044F0  
   \   000335   00000047     DB 0, 0, 0, 71, 11, 225, 128, 100, 244, 0, 0, 2, 227, 97, 240, 0, 0, 2
   \            0BE18064
   \            F4000002
   \            E361F000
   \            0002    
   \   000347   5330CE00     DB 83, 48, 206, 0
    904          {
    905              0xFF,0xAB,0xF3,//Set,GPIO,Selection,2,
    906              0x00,0x01,0xC8,//==>,,[GPIO16/nMUTE],->,nMUTE,,,[GPO17/EVENT],->,EVENT,,,[[CLKOUT/ROOUT]/GPO07],->,GPO07,,,Power,AMP:,ON,,,Fault,latch,time,4ms,,,Crystal:,ON,,,[SDO2/GPO18],->,SDO2,,,
    907              0xFF,0xAD,0x94,//Set,Event,Enable,Register,,
    908              0x00,0x00,0x02,
    909              0xFF,0xAD,0x93,//Set,Event,Status,Register,,
    910              0xFF,0xFF,0xFF,
    911              //#,I/O,Configuration,
    912              0xFF,0xAB,0xF2,//Set,GPIO,Pull-Up,
    913              0xFF,0xFF,0xFF,
    914              0xFF,0xAB,0xDB,//Set,GPIO,Output,Enable,
    915              0x00,0x00,0x00,
    916              0xFF,0xAB,0xDC,//Set,GPIO,Output,Value,
    917              0x00,0x00,0x00,
    918              0xFF,0xAB,0xF3,//Set,GPIO,Selection,2,
    919              0x00,0x09,0xC8,//==>,,[GPIO16/nMUTE],->,nMUTE,,,[GPO17/EVENT],->,EVENT,,,[[CLKOUT/ROOUT]/GPO07],->,GPO07,,,Power,AMP:,ON,,,Fault,latch,time,1s,,,Crystal:,ON,,,[SDO2/GPO18],->,SDO2,,,
    920              0xFF,0xAB,0xDA,//Set,GPIO,Selection,1,
    921              0x00,0x3F,0x7F,//==>,,SDO3,,,SDO2,,,GPO07,,,SDO0,,,SDI3,,,SDI2,,,SDI1,,,SDI0,,,SYNC,,,DCLK,,,
    922              //#,,Start,Algorithm,Configuration,
    923              0x00,0xC2,0x01,//Set,Speaker,Type,(Also,disable,Bypass),:,2.1,Mode
    924              0x00,0xC9,0x78,//Set,Balance,,L-CH:,0dB,,,R-CH:,0dB.,
    925              0x00,0xDF,0x1E,//Set,Leveler,Target,:,-6.00,dB
    926              0x00,0xDB,0x8F,//Set,Leveler,Range,:,-28.60,dB
    927              0x00,0xDB,0x8F,//Set,Leveler,Range,:,-28.60,dB
    928              0x00,0xC7,0x00,//Set,Soft,Mute,:,Un-Mute,(NOTE:,Add,soft-mute,fade,time,delay)
    929              0x00,0xE0,0x0A,//Set,Soft-Mute,Fade,Time,:,10,msec
    930              0x00,0xD5,0x52,//Set,MaxxBass,Cutoff,Freq,:,53.1,Hz
    931              0x00,0xCF,0x05,//Set,Bypass,Algorithm.,Bypass,is,enabled,for,:,High,Pass,Filter,,Maxx3D,,
    932              0x00,0xE1,0x52,//Set,MaxxBass,Noise,Gate,Threshold,:,-70,dB
    933              0x00,0xCB,0x01,//Set,Original,Bass,:,Enable,adding,original,bass
    934              0x00,0xE2,0x2F,//Set,MaxxBass,Noise,Gate,Gap,:,-47,dB
    935              0x00,0xE3,0x80,//Set,Front,High-Pass,Freq,:,201.6,Hz
    936              0x00,0xD9,0x6A,//Set,MaxxTreble,Freq,:,10851.7,Hz
    937              0x00,0xE5,0x2F,//Set,MaxxTreble,Noise,Gate,Gap,:,-47,dB
    938              0x00,0xE4,0x70,//Set,MaxxTreble,Noise,Gate,Threshold,:,-100,dB
    939              0x00,0xD7,0x80,//Set,SubCrossover,:,201.6,Hz
    940              0x01,0xD0,0x9F,//Set,MaxxVolume,Gain,:,3.00,dB
    941              0x03,0xB1,0xFA,//Generic,Read,(X),
    942              //I2C,R,0x73:,0x00,0x00,0x12,
    943              0x00,0xC6,0x01,//Set,Leveler,:,OFF
    944              0x00,0xDD,0x01,//Set,MaxxVolume,Type,:,Hard-Knee
    945              0x00,0xD4,0x00,//Set,MaxxVolume,Dynamic,Range,:,-80,dB
    946              0x00,0xDA,0x00,//Set,MaxxVolume,Low,Gain,:,0.00,dB
    947              0x00,0xDC,0x1A,//Set,MaxxVolume,Noise,Gate,:,-70,dB
    948          #if 1
    949              0x00,0xA1,0x05,//Load,PEQ,Start,
    950              0x00,0x00,0x00,//Ch:,1,
    951              0x00,0x00,0x00,//Type:,Bell,,,,,,,
    952              0x00,0x00,0x0A,//Freq:,29,Hz,
    953              0x00,0x00,0x0D,//Q:,0.97,
    954              0x00,0x00,0x40,//Gain:,-0.0,
    955              0x00,0xD8,0x00,//Load,PEQ,End,
    956              0x00,0xA1,0x05,//Load,PEQ,Start,
    957              0x00,0x00,0x01,//Ch:,2,
    958              0x00,0x00,0x00,//Type:,Bell,,,,,,,
    959              0x00,0x00,0x26,//Freq:,144,Hz,
    960              0x00,0x00,0x0D,//Q:,0.97,
    961              0x00,0x00,0x3A,//Gain:,-1.7,
    962              0x00,0xD8,0x00,//Load,PEQ,End,
    963              0x00,0xA1,0x05,//Load,PEQ,Start,
    964              0x00,0x00,0x02,//Ch:,3,
    965              0x00,0x00,0x04,//Type:,High,Pass,,
    966              0x00,0x00,0x1D,//Freq:,85,Hz,
    967              0x00,0x00,0x17,//Q:,1.41,
    968              0x00,0x00,0x43,//Gain:,0.8,
    969              0x00,0xD8,0x00,//Load,PEQ,End,
    970              0x00,0xA1,0x05,//Load,PEQ,Start,
    971              0x00,0x00,0x03,//Ch:,4,
    972              0x00,0x00,0x00,//Type:,Bell,,,,,,,
    973              0x00,0x00,0x34,//Freq:,323,Hz,
    974              0x00,0x00,0x3A,//Q:,2.96,
    975              0x00,0x00,0x24,//Gain:,-7.9,
    976              0x00,0xD8,0x00,//Load,PEQ,End,
    977              0x00,0xA1,0x05,//Load,PEQ,Start,
    978              0x00,0x00,0x04,//Ch:,5,
    979              0x00,0x00,0x00,//Type:,Bell,,,,,,,
    980              0x00,0x00,0x3C,//Freq:,512,Hz,
    981              0x00,0x00,0x3A,//Q:,2.96,
    982              0x00,0x00,0x33,//Gain:,-3.7,
    983              0x00,0xD8,0x00,//Load,PEQ,End,
    984              0x00,0xA1,0x05,//Load,PEQ,Start,
    985              0x00,0x00,0x05,//Ch:,6,
    986              0x00,0x00,0x00,//Type:,Bell,,,,,,,
    987              0x00,0x00,0x48,//Freq:,1024,Hz,
    988              0x00,0x00,0x3A,//Q:,2.96,
    989              0x00,0x00,0x35,//Gain:,-3.1,
    990              0x00,0xD8,0x00,//Load,PEQ,End,
    991              0x00,0xA1,0x05,//Load,PEQ,Start,
    992              0x00,0x00,0x06,//Ch:,7,
    993              0x00,0x00,0x00,//Type:,Bell,,,,,,,
    994              0x00,0x00,0x54,//Freq:,2048,Hz,
    995              0x00,0x00,0x3A,//Q:,2.96,
    996              0x00,0x00,0x38,//Gain:,-2.3,
    997              0x00,0xD8,0x00,//Load,PEQ,End,
    998              0x00,0xA1,0x05,//Load,PEQ,Start,
    999              0x00,0x00,0x07,//Ch:,8,
   1000              0x00,0x00,0x00,//Type:,Bell,,,,,,,
   1001              0x00,0x00,0x60,//Freq:,4096,Hz,
   1002              0x00,0x00,0x3A,//Q:,2.96,
   1003              0x00,0x00,0x3C,//Gain:,-1.1,
   1004              0x00,0xD8,0x00,//Load,PEQ,End,
   1005              0x00,0xA1,0x05,//Load,PEQ,Start,
   1006              0x00,0x00,0x08,//Ch:,9,
   1007              0x00,0x00,0x00,//Type:,Bell,,,,,,,
   1008              0x00,0x00,0x6C,//Freq:,8192,Hz,
   1009              0x00,0x00,0x3A,//Q:,2.96,
   1010              0x00,0x00,0x3C,//Gain:,-1.1,
   1011              0x00,0xD8,0x00,//Load,PEQ,End,
   1012              0x00,0xA1,0x05,//Load,PEQ,Start,
   1013              0x00,0x00,0x09,//Ch:,10,
   1014              0x00,0x00,0x02,//Type:,High,Shelf,
   1015              0x00,0x00,0x78,//Freq:,16384,Hz,
   1016              0x00,0x00,0x16,//Q:,1.37,
   1017              0x00,0x00,0x3A,//Gain:,-1.7,
   1018              0x00,0xD8,0x00,//Load,PEQ,End,
   1019          #endif    
   1020              0x00,0xCF,0x01,//Set,Bypass,Algorithm.,Bypass,is,enabled,for,:,High,Pass,Filter,,
   1021              0x00,0xD1,0x00,//Set,MaxxBass,Intensity,:,0.0,%
   1022              0x00,0xD1,0x09,//Set,MaxxBass,Intensity,:,7.1,%
   1023              0x00,0xD1,0x12,//Set,MaxxBass,Intensity,:,14.2,%
   1024              0x00,0xD1,0x1B,//Set,MaxxBass,Intensity,:,21.3,%
   1025              0x00,0xD1,0x24,//Set,MaxxBass,Intensity,:,28.3,%
   1026              0x00,0xD1,0x2D,//Set,MaxxBass,Intensity,:,35.4,%
   1027              0x00,0xD1,0x36,//Set,MaxxBass,Intensity,:,42.5,%
   1028              0x00,0xD1,0x3F,//Set,MaxxBass,Intensity,:,49.6,%
   1029              0x00,0xD1,0x48,//Set,MaxxBass,Intensity,:,56.7,%
   1030              0x00,0xD1,0x4C,//Set,MaxxBass,Intensity,:,59.8,%
   1031              0x00,0xD1,0x12,//Set,MaxxBass,Intensity,:,14.2,%
   1032              0x03,0xB1,0xFA,//Generic,Read,(X),
   1033              //I2C,R,0x73:,0x00,0x00,0x12,
   1034          //    0x00,0xCF,0x05,//Set,Bypass,Algorithm.,Bypass,is,enabled,for,:,High,Pass,Filter,,Maxx3D,,
   1035              0x00,0xCF,0x01,//Set,Bypass,Algorithm.,Bypass,is,enabled,for,:,High,Pass,Filter,,Maxx3D,,
   1036          
   1037              0x00,0xD2,0x19,//Set,MaxxTreble,Intensity,:,19.7,%
   1038              
   1039          //    0x00,0xCF,0x05,//Set,Bypass,Algorithm.,Bypass,is,enabled,for,:,High,Pass,Filter,,Maxx3D,,
   1040          //    0x00,0xCF,0x05,//Set,Bypass,Algorithm.,Bypass,is,enabled,for,:,High,Pass,Filter,,Maxx3D,,
   1041              0x00,0xCF,0x01,//Set,Bypass,Algorithm.,Bypass,is,enabled,for,:,High,Pass,Filter,,Maxx3D,,
   1042              0x00,0xD3,0x00,
   1043              0x00,0xD6,0x00,
   1044              0x00,0xCF,0x01,//Set,Bypass,Algorithm.,Bypass,is,enabled,for,:,High,Pass,Filter,,Maxx3D,,
   1045              
   1046              0x00,0xE8,0x3F,//Set,MaxxDialog,Level,:,49.6,%
   1047              0x03,0xB1,0xFA,//Generic,Read,(X),
   1048              //I2C,R,0x73:,0x00,0x00,0x12,
   1049              0x00,0xE9,0x4C,//Set,MaxxDialog,Side,Level,:,59.8,%
   1050              0x03,0xB1,0xFA,//Generic,Read,(X),
   1051              //I2C,R,0x73:,0x00,0x00,0x12,
   1052          //    0x00,0xCF,0x05,//Set,Bypass,Algorithm.,Bypass,is,enabled,for,:,High,Pass,Filter,,Maxx3D,,
   1053              0x00,0xCF,0x01,//Set,Bypass,Algorithm.,Bypass,is,enabled,for,:,High,Pass,Filter,,Maxx3D,,
   1054          
   1055              0x07,0xAA,0x04,//Set,Patch,Version,
   1056              
   1057              0x03,0xA2,0x42,//Load,Patch,(extend,data,834,x,3),
   1058              0x61,0xF4,0x00,
   1059              0x00,0x00,0x69,
   1060              0x61,0x70,0x00,
   1061              0x00,0x02,0x5A,
   1062              0x61,0xF4,0x00,
   1063              0x00,0x00,0x7C,
   1064              0x61,0x70,0x00,
   1065              0x00,0x02,0x49,
   1066              0x61,0xF4,0x00,
   1067              0x00,0x01,0xCD,
   1068              0x61,0x70,0x00,
   1069              0x00,0x02,0x0E,
   1070              0x60,0xF4,0x00,
   1071              0x00,0x00,0x0E,
   1072              0x45,0xF4,0x00,
   1073              0x0B,0xF0,0x80,
   1074              0x44,0xF4,0x00,
   1075              0x00,0x01,0x86,
   1076              0x07,0x58,0x85,
   1077              0x07,0x58,0x84,
   1078              0x0B,0xF0,0x80,
   1079              0x00,0x00,0xA8,
   1080              0x61,0xF4,0x00,
   1081              0x00,0x00,0xB0,
   1082              0x61,0x70,0x00,
   1083              0x00,0x02,0x29,
   1084              0x0B,0xF0,0x80,
   1085              0x00,0x01,0x55,
   1086              0x46,0xF4,0x00,
   1087              0x7F,0xFF,0xFF,
   1088              0x4E,0x70,0x00,
   1089              0x00,0x03,0xB5,
   1090              0x64,0xF4,0x00,
   1091              0x00,0x03,0xB7,
   1092              0x60,0xF4,0x00,
   1093              0x00,0x03,0x07,
   1094              0x46,0xF4,0x00,
   1095              0x00,0x00,0x11,
   1096              0x4E,0x64,0x00,
   1097              0x46,0x60,0x00,
   1098              0x00,0x00,0x0C,
   1099              0x0A,0xC4,0x26,
   1100              0x00,0xD4,0x8F,
   1101              0x61,0xF0,0x00,
   1102              0x00,0x02,0x6B,
   1103              0x0B,0xE1,0x80,
   1104              0x57,0xF0,0x00,
   1105              0x00,0x01,0xA8,
   1106              0x44,0xF0,0x00,
   1107              0x00,0x01,0xA2,
   1108              0x1F,0xB0,0x41,
   1109              0x00,0x01,0xA0,
   1110              0x20,0x00,0x07,
   1111              0x02,0x90,0x00,
   1112              0x20,0x00,0x79,
   1113              0x20,0x00,0x07,
   1114              0x02,0x90,0x00,
   1115              0x20,0x00,0x79,
   1116              0x0A,0xF0,0x80,
   1117              0x00,0xD4,0x0B,
   1118              0x6C,0xF0,0x00,
   1119              0x00,0x02,0x54,
   1120              0x74,0xF4,0x00,
   1121              0x00,0x00,0x0A,
   1122              0x20,0x4C,0x00,
   1123              0x4E,0xE4,0x00,
   1124              0x20,0xCF,0x00,
   1125              0x6C,0xF0,0x00,
   1126              0x00,0x02,0x54,
   1127              0x74,0xF4,0x00,
   1128              0x00,0x00,0x03,
   1129              0x20,0x4C,0x00,
   1130              0x4E,0xE4,0x00,
   1131              0x20,0xCE,0x00,
   1132              0x20,0x00,0x0D,
   1133              0x0D,0x10,0x49,
   1134              0x00,0x00,0x1C,
   1135              0x57,0xF0,0x00,
   1136              0x00,0x02,0xD8,
   1137              0x20,0x00,0x13,
   1138              0x56,0xBD,0x00,
   1139              0x01,0x41,0x85,
   1140              0x0A,0xF0,0xA2,
   1141              0x00,0x00,0x96,
   1142              0x57,0xF0,0x00,
   1143              0x00,0x02,0xDA,
   1144              0x46,0xF4,0x00,
   1145              0x00,0x00,0x01,
   1146              0x20,0x00,0x58,
   1147              0x21,0xE5,0x3A,
   1148              0x20,0x00,0x68,
   1149              0x47,0xF4,0x00,
   1150              0x00,0x16,0x00,
   1151              0x46,0xF0,0x78,
   1152              0x00,0x00,0x49,
   1153              0x20,0x00,0x58,
   1154              0x21,0xF3,0x00,
   1155              0x4E,0xDB,0x00,
   1156              0x4E,0x5C,0x00,
   1157              0x4E,0xDB,0x00,
   1158              0x4E,0x5C,0x00,
   1159              0x4E,0xDB,0x00,
   1160              0x4E,0x64,0x00,
   1161              0x00,0x00,0x0C,
   1162              0x20,0x00,0x13,
   1163              0x60,0xF4,0x00,
   1164              0x00,0x02,0xFD,
   1165              0x56,0x60,0x00,
   1166              0x06,0x08,0x80,
   1167              0x00,0x00,0xAE,
   1168              0x56,0x58,0x00,
   1169              0x00,0x00,0x0C,
   1170              0x56,0xF0,0x00,
   1171              0x00,0x01,0xB9,
   1172              0x57,0xF0,0x22,
   1173              0x00,0x01,0xBA,
   1174              0x56,0x70,0x2A,
   1175              0x00,0x01,0xA0,
   1176              0x57,0x70,0x00,
   1177              0x00,0x01,0xA2,
   1178              0x6C,0xF0,0x00,
   1179              0x00,0x02,0x53,
   1180              0x3C,0x00,0x00,
   1181              0x61,0xF0,0x00,
   1182              0x00,0x02,0x2E,
   1183              0x20,0x4C,0x00,
   1184              0x30,0x54,0x00,
   1185              0x44,0xF0,0x00,
   1186              0x00,0x00,0x47,
   1187              0x0B,0xE1,0x80,
   1188              0x6C,0xF0,0x00,
   1189              0x00,0x02,0x53,
   1190              0x3C,0x03,0x00,
   1191              0x61,0xF0,0x00,
   1192              0x00,0x02,0x43,
   1193              0x20,0x4C,0x00,
   1194              0x30,0x62,0x00,
   1195              0x44,0xF0,0x00,
   1196              0x00,0x00,0x47,
   1197              0x0B,0xE1,0x80,
   1198              0x64,0xF4,0x00,
   1199              0x00,0x02,0xE3,
   1200              0x61,0xF0,0x00, 
   1201              0x00,0x02,0x53,
   1202              0x30,0xCE,0x00,
   1203          };
   1204          
   1205          #if 1
   1206          #pragma location="DSP_DATA2"

   \                                 In segment DSP_DATA2, align 1
   1207          const __code u8 g_abMaxxDSPCommands_3[837] =
   \                     g_abMaxxDSPCommands_3:
   \   000000   44F00000     DB 68, 240, 0, 0, 0, 71, 11, 225, 128, 100, 244, 0, 0, 2, 249, 97, 240
   \            00470BE1
   \            8064F400
   \            0002F961
   \            F0      
   \   000011   0000029D     DB 0, 0, 2, 157, 68, 240, 0, 0, 0, 71, 11, 225, 128, 108, 240, 0, 0, 2
   \            44F00000
   \            00470BE1
   \            806CF000
   \            0002    
   \   000023   533C1000     DB 83, 60, 16, 0, 97, 240, 0, 0, 2, 70, 32, 76, 0, 48, 160, 0, 68, 240
   \            61F00000
   \            0246204C
   \            0030A000
   \            44F0    
   \   000035   00000047     DB 0, 0, 0, 71, 11, 225, 128, 68, 240, 0, 0, 1, 176, 68, 112, 0, 0, 1
   \            0BE18044
   \            F0000001
   \            B0447000
   \            0001    
   \   000047   A944F000     DB 169, 68, 240, 0, 0, 1, 178, 68, 112, 0, 0, 1, 172, 108, 240, 0, 0, 2
   \            0001B244
   \            70000001
   \            AC6CF000
   \            0002    
   \   000059   533C1300     DB 83, 60, 19, 0, 97, 240, 0, 0, 2, 57, 32, 76, 0, 48, 174, 0, 68, 240
   \            61F00000
   \            0239204C
   \            0030AE00
   \            44F0    
   \   00006B   00000047     DB 0, 0, 0, 71, 11, 225, 128, 86, 240, 0, 0, 1, 172, 68, 240, 0, 0, 1
   \            0BE18056
   \            F0000001
   \            AC44F000
   \            0001    
   \   00007D   A957F040     DB 169, 87, 240, 64, 0, 1, 175, 68, 240, 34, 0, 1, 177, 69, 240, 72, 0
   \            0001AF44
   \            F0220001
   \            B145F048
   \            00      
   \   00008E   01A44570     DB 1, 164, 69, 112, 42, 0, 1, 160, 69, 240, 16, 0, 1, 166, 69, 112, 34
   \            2A0001A0
   \            45F01000
   \            01A64570
   \            22      
   \   00009F   0001A220     DB 0, 1, 162, 32, 0, 34, 86, 112, 0, 0, 1, 168, 108, 240, 0, 0, 2, 83
   \            00225670
   \            000001A8
   \            6CF00000
   \            0253    
   \   0000B1   3C290061     DB 60, 41, 0, 97, 240, 0, 0, 2, 76, 32, 76, 0, 48, 220, 0, 68, 240, 0
   \            F0000002
   \            4C204C00
   \            30DC0044
   \            F000    
   \   0000C3   0000470B     DB 0, 0, 71, 11, 225, 128, 86, 240, 0, 0, 1, 160, 87, 240, 34, 0, 1
   \            E18056F0
   \            000001A0
   \            57F02200
   \            01      
   \   0000D4   A2200022     DB 162, 32, 0, 34, 86, 112, 42, 0, 1, 160, 32, 0, 42, 87, 112, 0, 0, 1
   \            56702A00
   \            01A02000
   \            2A577000
   \            0001    
   \   0000E6   A26CF000     DB 162, 108, 240, 0, 0, 2, 83, 116, 244, 0, 0, 0, 95, 97, 240, 0, 0, 2
   \            00025374
   \            F4000000
   \            5F61F000
   \            0002    
   \   0000F8   8F204C00     DB 143, 32, 76, 0, 96, 244, 0, 0, 1, 83, 11, 225, 128, 48, 255, 0, 97
   \            60F40000
   \            01530BE1
   \            8030FF00
   \            61      
   \   000109   F0000002     DB 240, 0, 0, 2, 120, 100, 244, 0, 0, 2, 86, 11, 225, 128, 96, 244, 0
   \            7864F400
   \            0002560B
   \            E18060F4
   \            00      
   \   00011A   0002FD44     DB 0, 2, 253, 68, 216, 0, 10, 196, 0, 0, 1, 62, 100, 244, 0, 0, 3, 224
   \            D8000AC4
   \            0000013E
   \            64F40000
   \            03E0    
   \   00012C   7DDC0079     DB 125, 220, 0, 121, 220, 0, 56, 2, 0, 87, 240, 0, 0, 1, 168, 11, 240
   \            DC003802
   \            0057F000
   \            0001A80B
   \            F0      
   \   00013D   8000D596     DB 128, 0, 213, 150, 87, 112, 0, 0, 1, 168, 108, 240, 0, 0, 2, 83, 60
   \            57700000
   \            01A86CF0
   \            00000253
   \            3C      
   \   00014E   330061F0     DB 51, 0, 97, 240, 0, 0, 2, 90, 48, 230, 0, 32, 76, 0, 68, 240, 0, 0, 0
   \            0000025A
   \            30E60020
   \            4C0044F0
   \            000000  
   \   000161   470BE180     DB 71, 11, 225, 128, 68, 240, 0, 0, 1, 164, 68, 112, 0, 0, 1, 189, 68
   \            44F00000
   \            01A44470
   \            000001BD
   \            44      
   \   000172   F0000001     DB 240, 0, 0, 1, 166, 68, 112, 0, 0, 1, 190, 68, 240, 0, 0, 1, 168, 68
   \            A6447000
   \            0001BE44
   \            F0000001
   \            A844    
   \   000184   70000001     DB 112, 0, 0, 1, 191, 0, 0, 12, 68, 240, 0, 0, 2, 212, 68, 112, 0, 0, 3
   \            BF00000C
   \            44F00000
   \            02D44470
   \            000003  
   \   000197   FA44F400     DB 250, 68, 244, 0, 0, 0, 0, 68, 112, 0, 0, 3, 251, 68, 244, 0, 0, 1
   \            00000044
   \            70000003
   \            FB44F400
   \            0001    
   \   0001A9   D6447000     DB 214, 68, 112, 0, 0, 3, 252, 68, 244, 0, 0, 0, 1, 68, 112, 0, 0, 3
   \            0003FC44
   \            F4000000
   \            01447000
   \            0003    
   \   0001BB   FD00000C     DB 253, 0, 0, 12, 68, 240, 0, 0, 2, 212, 10, 197, 0, 0, 1, 131, 68, 240
   \            44F00000
   \            02D40AC5
   \            00000183
   \            44F0    
   \   0001CD   00000047     DB 0, 0, 0, 71, 10, 196, 38, 0, 1, 131, 68, 240, 0, 0, 3, 253, 1, 65
   \            0AC42600
   \            018344F0
   \            000003FD
   \            0141    
   \   0001DF   C800004E     DB 200, 0, 0, 78, 32, 0, 42, 33, 38, 0, 68, 240, 0, 0, 2, 211, 32, 0
   \            20002A21
   \            260044F0
   \            000002D3
   \            2000    
   \   0001F1   D844F000     DB 216, 68, 240, 0, 0, 3, 252, 32, 0, 222, 46, 0, 0, 32, 0, 29, 12, 28
   \            0003FC20
   \            00DE2E00
   \            0020001D
   \            0C1C    
   \   000203   9550F000     DB 149, 80, 240, 0, 0, 2, 212, 32, 0, 20, 47, 0, 0, 32, 0, 29, 33, 36
   \            0002D420
   \            00142F00
   \            0020001D
   \            2124    
   \   000215   00447000     DB 0, 68, 112, 0, 0, 3, 250, 0, 0, 12, 11, 240, 128, 0, 194, 131, 10
   \            0003FA00
   \            000C0BF0
   \            8000C283
   \            0A      
   \   000226   152061F0     DB 21, 32, 97, 240, 0, 0, 2, 160, 96, 244, 0, 0, 1, 147, 100, 244, 0, 0
   \            000002A0
   \            60F40000
   \            019364F4
   \            0000    
   \   000238   028A0BE1     DB 2, 138, 11, 225, 128, 97, 240, 0, 0, 2, 160, 96, 244, 0, 0, 1, 151
   \            8061F000
   \            0002A060
   \            F4000001
   \            97      
   \   000249   64F40000     DB 100, 244, 0, 0, 2, 141, 11, 225, 128, 97, 240, 0, 0, 2, 160, 96, 244
   \            028D0BE1
   \            8061F000
   \            0002A060
   \            F4      
   \   00025A   00000306     DB 0, 0, 3, 6, 100, 244, 0, 0, 3, 182, 11, 225, 128, 7, 112, 53, 0, 1
   \            64F40000
   \            03B60BE1
   \            80077035
   \            0001    
   \   00026C   9E077036     DB 158, 7, 112, 54, 0, 1, 159, 108, 240, 0, 0, 2, 84, 97, 240, 0, 0, 2
   \            00019F6C
   \            F0000002
   \            5461F000
   \            0002    
   \   00027E   A374F400     DB 163, 116, 244, 0, 0, 0, 158, 32, 76, 0, 96, 244, 0, 0, 1, 157, 11
   \            00009E20
   \            4C0060F4
   \            0000019D
   \            0B      
   \   00028F   E18061F0     DB 225, 128, 97, 240, 0, 0, 1, 252, 11, 240, 128, 0, 202, 3, 11, 225
   \            000001FC
   \            0BF08000
   \            CA030BE1
   \   00029F   804EF000     DB 128, 78, 240, 0, 0, 3, 181, 68, 240, 0, 0, 1, 189, 69, 240, 209, 0
   \            0003B544
   \            F0000001
   \            BD45F0D1
   \            00      
   \   0002B0   01BE5670     DB 1, 190, 86, 112, 225, 0, 1, 189, 86, 112, 0, 0, 1, 190, 68, 240, 0
   \            E10001BD
   \            56700000
   \            01BE44F0
   \            00      
   \   0002C1   0001BF20     DB 0, 1, 191, 32, 0, 209, 86, 112, 0, 0, 1, 191, 68, 240, 0, 0, 1, 183
   \            00D15670
   \            000001BF
   \            44F00000
   \            01B7    
   \   0002D3   44700000     DB 68, 112, 0, 0, 1, 187, 68, 240, 0, 0, 1, 184, 68, 112, 0, 0, 1, 188
   \            01BB44F0
   \            000001B8
   \            44700000
   \            01BC    
   \   0002E5   0BF08000     DB 11, 240, 128, 0, 202, 70, 11, 240, 128, 0, 194, 192, 0, 0, 4, 70
   \            CA460BF0
   \            8000C2C0
   \            00000446
   \   0002F5   90005791     DB 144, 0, 87, 145, 0, 12, 30, 145, 33, 229, 0, 68, 146, 0, 87, 244, 0
   \            000C1E91
   \            21E50044
   \            920057F4
   \            00      
   \   000306   00F00020     DB 0, 240, 0, 32, 0, 109, 10, 240, 162, 0, 1, 224, 68, 112, 0, 0, 3
   \            006D0AF0
   \            A20001E0
   \            44700000
   \            03      
   \   000317   FB208500     DB 251, 32, 133, 0, 13, 1, 102, 97, 240, 0, 0, 2, 50, 11, 225, 128, 10
   \            0D016661
   \            F0000002
   \            320BE180
   \            0A      
   \   000328   F08000C8     DB 240, 128, 0, 200, 170, 87, 244, 0, 0, 241, 0, 32, 0, 109, 10, 240
   \            AA57F400
   \            00F10020
   \            006D0AF0
   \   000338   A20001F3     DB 162, 0, 1, 243, 32, 206, 0, 12, 30, 144, 32, 0, 64
   \            20CE000C
   \            1E902000
   \            40      
   1208          {
   1209          #if 1
   1210              0x44,0xF0,0x00,
   1211              0x00,0x00,0x47,
   1212              0x0B,0xE1,0x80,
   1213              0x64,0xF4,0x00,
   1214              0x00,0x02,0xF9,
   1215              0x61,0xF0,0x00,
   1216              0x00,0x02,0x9D,
   1217              0x44,0xF0,0x00,
   1218              0x00,0x00,0x47,
   1219              0x0B,0xE1,0x80,
   1220              0x6C,0xF0,0x00,
   1221              0x00,0x02,0x53,
   1222              0x3C,0x10,0x00,
   1223              0x61,0xF0,0x00,
   1224              0x00,0x02,0x46,
   1225              0x20,0x4C,0x00,
   1226              0x30,0xA0,0x00,
   1227              0x44,0xF0,0x00,
   1228              0x00,0x00,0x47,
   1229              0x0B,0xE1,0x80,
   1230              0x44,0xF0,0x00,
   1231              0x00,0x01,0xB0,
   1232              0x44,0x70,0x00,
   1233              0x00,0x01,0xA9,
   1234              0x44,0xF0,0x00,
   1235              0x00,0x01,0xB2,
   1236              0x44,0x70,0x00,
   1237              0x00,0x01,0xAC,
   1238              0x6C,0xF0,0x00,
   1239              0x00,0x02,0x53,
   1240              0x3C,0x13,0x00,
   1241              0x61,0xF0,0x00,
   1242              0x00,0x02,0x39,
   1243              0x20,0x4C,0x00,
   1244              0x30,0xAE,0x00,
   1245              0x44,0xF0,0x00,
   1246              0x00,0x00,0x47,
   1247              0x0B,0xE1,0x80,
   1248              0x56,0xF0,0x00,
   1249              0x00,0x01,0xAC,
   1250              0x44,0xF0,0x00,
   1251              0x00,0x01,0xA9,
   1252              0x57,0xF0,0x40,
   1253              0x00,0x01,0xAF,
   1254              0x44,0xF0,0x22,
   1255              0x00,0x01,0xB1,
   1256              0x45,0xF0,0x48,
   1257              0x00,0x01,0xA4,
   1258              0x45,0x70,0x2A,
   1259              0x00,0x01,0xA0,
   1260              0x45,0xF0,0x10,
   1261              0x00,0x01,0xA6,
   1262              0x45,0x70,0x22,
   1263              0x00,0x01,0xA2,
   1264              0x20,0x00,0x22,
   1265              0x56,0x70,0x00,
   1266              0x00,0x01,0xA8,
   1267              0x6C,0xF0,0x00,
   1268              0x00,0x02,0x53,
   1269              0x3C,0x29,0x00,
   1270              0x61,0xF0,0x00,
   1271              0x00,0x02,0x4C,
   1272              0x20,0x4C,0x00,
   1273              0x30,0xDC,0x00,
   1274              0x44,0xF0,0x00,
   1275              0x00,0x00,0x47,
   1276              0x0B,0xE1,0x80,
   1277              0x56,0xF0,0x00,
   1278              0x00,0x01,0xA0,
   1279              0x57,0xF0,0x22,
   1280              0x00,0x01,0xA2,
   1281              0x20,0x00,0x22,
   1282              0x56,0x70,0x2A,
   1283              0x00,0x01,0xA0,
   1284              0x20,0x00,0x2A,
   1285              0x57,0x70,0x00,
   1286              0x00,0x01,0xA2,
   1287              0x6C,0xF0,0x00,
   1288              0x00,0x02,0x53,
   1289              0x74,0xF4,0x00,
   1290              0x00,0x00,0x5F,
   1291              0x61,0xF0,0x00,
   1292              0x00,0x02,0x8F,
   1293              0x20,0x4C,0x00,
   1294              0x60,0xF4,0x00,
   1295              0x00,0x01,0x53,
   1296              0x0B,0xE1,0x80,
   1297              0x30,0xFF,0x00,
   1298              0x61,0xF0,0x00,
   1299              0x00,0x02,0x78,
   1300              0x64,0xF4,0x00,
   1301              0x00,0x02,0x56,
   1302              0x0B,0xE1,0x80,
   1303              0x60,0xF4,0x00,
   1304              0x00,0x02,0xFD,
   1305              0x44,0xD8,0x00,
   1306              0x0A,0xC4,0x00,
   1307              0x00,0x01,0x3E,
   1308              0x64,0xF4,0x00,
   1309              0x00,0x03,0xE0,
   1310              0x7D,0xDC,0x00,
   1311              0x79,0xDC,0x00,
   1312              0x38,0x02,0x00,
   1313              0x57,0xF0,0x00,
   1314              0x00,0x01,0xA8,
   1315              0x0B,0xF0,0x80,
   1316              0x00,0xD5,0x96,
   1317              0x57,0x70,0x00,
   1318              0x00,0x01,0xA8,
   1319              0x6C,0xF0,0x00,
   1320              0x00,0x02,0x53,
   1321              0x3C,0x33,0x00,
   1322              0x61,0xF0,0x00,
   1323              0x00,0x02,0x5A,
   1324              0x30,0xE6,0x00,
   1325              0x20,0x4C,0x00,
   1326              0x44,0xF0,0x00,
   1327              0x00,0x00,0x47,
   1328              0x0B,0xE1,0x80,
   1329              0x44,0xF0,0x00,
   1330              0x00,0x01,0xA4,
   1331              0x44,0x70,0x00,
   1332              0x00,0x01,0xBD,
   1333              0x44,0xF0,0x00,
   1334              0x00,0x01,0xA6,
   1335              0x44,0x70,0x00,
   1336              0x00,0x01,0xBE,
   1337              0x44,0xF0,0x00,
   1338              0x00,0x01,0xA8,
   1339              0x44,0x70,0x00,
   1340              0x00,0x01,0xBF,
   1341              0x00,0x00,0x0C,
   1342              0x44,0xF0,0x00,
   1343              0x00,0x02,0xD4,
   1344              0x44,0x70,0x00,
   1345              0x00,0x03,0xFA,
   1346              0x44,0xF4,0x00,
   1347              0x00,0x00,0x00,
   1348              0x44,0x70,0x00,
   1349              0x00,0x03,0xFB,
   1350              0x44,0xF4,0x00,
   1351              0x00,0x01,0xD6,
   1352              0x44,0x70,0x00,
   1353              0x00,0x03,0xFC,
   1354              0x44,0xF4,0x00,
   1355              0x00,0x00,0x01,
   1356              0x44,0x70,0x00,
   1357              0x00,0x03,0xFD,
   1358              0x00,0x00,0x0C,
   1359              0x44,0xF0,0x00,
   1360              0x00,0x02,0xD4,
   1361              0x0A,0xC5,0x00,
   1362              0x00,0x01,0x83,
   1363              0x44,0xF0,0x00,
   1364              0x00,0x00,0x47,
   1365              0x0A,0xC4,0x26,
   1366              0x00,0x01,0x83,
   1367              0x44,0xF0,0x00,
   1368              0x00,0x03,0xFD,
   1369              0x01,0x41,0xC8,
   1370              0x00,0x00,0x4E,
   1371              0x20,0x00,0x2A,
   1372              0x21,0x26,0x00,
   1373              0x44,0xF0,0x00,
   1374              0x00,0x02,0xD3,
   1375              0x20,0x00,0xD8,
   1376              0x44,0xF0,0x00,
   1377              0x00,0x03,0xFC,
   1378              0x20,0x00,0xDE,
   1379              0x2E,0x00,0x00,
   1380              0x20,0x00,0x1D,
   1381              0x0C,0x1C,0x95,
   1382              0x50,0xF0,0x00,
   1383              0x00,0x02,0xD4,
   1384              0x20,0x00,0x14,
   1385              0x2F,0x00,0x00,
   1386              0x20,0x00,0x1D,
   1387              0x21,0x24,0x00,
   1388              0x44,0x70,0x00,
   1389              0x00,0x03,0xFA,
   1390              0x00,0x00,0x0C,
   1391              0x0B,0xF0,0x80,
   1392              0x00,0xC2,0x83,
   1393              0x0A,0x15,0x20,
   1394              0x61,0xF0,0x00,
   1395              0x00,0x02,0xA0,
   1396              0x60,0xF4,0x00,
   1397              0x00,0x01,0x93,
   1398              0x64,0xF4,0x00,
   1399              0x00,0x02,0x8A,
   1400              0x0B,0xE1,0x80,
   1401              0x61,0xF0,0x00,
   1402              0x00,0x02,0xA0,
   1403              0x60,0xF4,0x00,
   1404              0x00,0x01,0x97,
   1405              0x64,0xF4,0x00,
   1406              0x00,0x02,0x8D,
   1407              0x0B,0xE1,0x80,
   1408              0x61,0xF0,0x00,
   1409              0x00,0x02,0xA0,
   1410              0x60,0xF4,0x00,
   1411              0x00,0x03,0x06,
   1412              0x64,0xF4,0x00,
   1413              0x00,0x03,0xB6,
   1414              0x0B,0xE1,0x80,
   1415              0x07,0x70,0x35,
   1416              0x00,0x01,0x9E,
   1417              0x07,0x70,0x36,
   1418              0x00,0x01,0x9F,
   1419              0x6C,0xF0,0x00,
   1420              0x00,0x02,0x54,
   1421              0x61,0xF0,0x00,
   1422              0x00,0x02,0xA3,
   1423              0x74,0xF4,0x00,
   1424              0x00,0x00,0x9E,
   1425              0x20,0x4C,0x00,
   1426              0x60,0xF4,0x00,
   1427              0x00,0x01,0x9D,
   1428              0x0B,0xE1,0x80,
   1429              0x61,0xF0,0x00,
   1430              0x00,0x01,0xFC,
   1431              0x0B,0xF0,0x80,
   1432              0x00,0xCA,0x03,
   1433              0x0B,0xE1,0x80,
   1434              0x4E,0xF0,0x00,
   1435              0x00,0x03,0xB5,
   1436              0x44,0xF0,0x00,
   1437              0x00,0x01,0xBD,
   1438              0x45,0xF0,0xD1,
   1439              0x00,0x01,0xBE,
   1440              0x56,0x70,0xE1,
   1441              0x00,0x01,0xBD,
   1442              0x56,0x70,0x00,
   1443              0x00,0x01,0xBE,
   1444              0x44,0xF0,0x00,
   1445              0x00,0x01,0xBF,
   1446              0x20,0x00,0xD1,
   1447              0x56,0x70,0x00,
   1448              0x00,0x01,0xBF,
   1449              0x44,0xF0,0x00,
   1450              0x00,0x01,0xB7,
   1451              0x44,0x70,0x00,
   1452              0x00,0x01,0xBB,
   1453              0x44,0xF0,0x00,
   1454              0x00,0x01,0xB8,
   1455              0x44,0x70,0x00,
   1456              0x00,0x01,0xBC,
   1457              0x0B,0xF0,0x80,
   1458              0x00,0xCA,0x46,
   1459              0x0B,0xF0,0x80,
   1460              0x00,0xC2,0xC0,
   1461              0x00,0x00,0x04,
   1462              0x46,0x90,0x00,
   1463              0x57,0x91,0x00,
   1464              0x0C,0x1E,0x91,
   1465              0x21,0xE5,0x00,
   1466              0x44,0x92,0x00,
   1467              0x57,0xF4,0x00,
   1468              0x00,0xF0,0x00,
   1469              0x20,0x00,0x6D,
   1470              0x0A,0xF0,0xA2,
   1471              0x00,0x01,0xE0,
   1472              0x44,0x70,0x00,
   1473              0x00,0x03,0xFB,
   1474              0x20,0x85,0x00,
   1475              0x0D,0x01,0x66,
   1476              0x61,0xF0,0x00,
   1477              0x00,0x02,0x32,
   1478              0x0B,0xE1,0x80,
   1479              0x0A,0xF0,0x80,
   1480              0x00,0xC8,0xAA,
   1481              0x57,0xF4,0x00,
   1482              0x00,0xF1,0x00,
   1483              0x20,0x00,0x6D,
   1484              0x0A,0xF0,0xA2,
   1485              0x00,0x01,0xF3,
   1486              0x20,0xCE,0x00,
   1487              0x0C,0x1E,0x90,
   1488              0x20,0x00,0x40,
   1489          #endif 
   1490          };
   1491          #endif
   1492          
   1493          #pragma location="DSP_EQ_DATA"

   \                                 In segment DSP_EQ_DATA, align 1
   1494          const __code u8 g_abMaxxDSP_EQ_Music[258] =
   \                     g_abMaxxDSP_EQ_Music:
   \   000000   00D53E00     DB 0, 213, 62, 0, 227, 104, 0, 207, 0, 0, 225, 112, 0, 226, 0, 0, 215
   \            E36800CF
   \            0000E170
   \            00E20000
   \            D7      
   \   000011   6000A105     DB 96, 0, 161, 5, 0, 0, 0, 0, 0, 1, 0, 0, 34, 0, 0, 6, 0, 0, 0, 0, 216
   \            00000000
   \            00010000
   \            22000006
   \            00000000
   \            D8      
   \   000026   0000A105     DB 0, 0, 161, 5, 0, 0, 1, 0, 0, 0, 0, 0, 34, 0, 0, 58, 0, 0, 0, 0, 216
   \            00000100
   \            00000000
   \            2200003A
   \            00000000
   \            D8      
   \   00003B   0000A105     DB 0, 0, 161, 5, 0, 0, 2, 0, 0, 0, 0, 0, 39, 0, 0, 58, 0, 0, 0, 0, 216
   \            00000200
   \            00000000
   \            2700003A
   \            00000000
   \            D8      
   \   000050   0000A105     DB 0, 0, 161, 5, 0, 0, 3, 0, 0, 0, 0, 0, 52, 0, 0, 4, 0, 0, 78, 0, 216
   \            00000300
   \            00000000
   \            34000004
   \            00004E00
   \            D8      
   \   000065   0000A105     DB 0, 0, 161, 5, 0, 0, 4, 0, 0, 0, 0, 0, 58, 0, 0, 13, 0, 0, 65, 0, 216
   \            00000400
   \            00000000
   \            3A00000D
   \            00004100
   \            D8      
   \   00007A   0000A105     DB 0, 0, 161, 5, 0, 0, 5, 0, 0, 0, 0, 0, 72, 0, 0, 58, 0, 0, 64, 0, 216
   \            00000500
   \            00000000
   \            4800003A
   \            00004000
   \            D8      
   \   00008F   0000A105     DB 0, 0, 161, 5, 0, 0, 6, 0, 0, 0, 0, 0, 84, 0, 0, 58, 0, 0, 64, 0, 216
   \            00000600
   \            00000000
   \            5400003A
   \            00004000
   \            D8      
   \   0000A4   0000A105     DB 0, 0, 161, 5, 0, 0, 7, 0, 0, 0, 0, 0, 96, 0, 0, 58, 0, 0, 64, 0, 216
   \            00000700
   \            00000000
   \            6000003A
   \            00004000
   \            D8      
   \   0000B9   0000A105     DB 0, 0, 161, 5, 0, 0, 8, 0, 0, 0, 0, 0, 108, 0, 0, 13, 0, 0, 64, 0
   \            00000800
   \            00000000
   \            6C00000D
   \            00004000
   \   0000CD   D80000A1     DB 216, 0, 0, 161, 5, 0, 0, 9, 0, 0, 2, 0, 0, 106, 0, 0, 6, 0, 0, 82, 0
   \            05000009
   \            00000200
   \            006A0000
   \            06000052
   \            00      
   \   0000E2   D80000D1     DB 216, 0, 0, 209, 76, 0, 207, 0, 0, 210, 25, 0, 207, 0, 0, 211, 0, 0
   \            4C00CF00
   \            00D21900
   \            CF0000D3
   \            0000    
   \   0000F4   D60000CF     DB 214, 0, 0, 207, 0, 0, 232, 63, 0, 233, 76, 0, 207, 0
   \            0000E83F
   \            00E94C00
   \            CF00    
   1495          {
   1496              0x00,0xD5,0x3E,//Set,MaxxBass,Cutoff,Freq,:,29.9,Hz
   1497              0x00,0xE3,0x68,//Set,Front,High-Pass,Freq,:,100.8,Hz
   1498              0x00,0xCF,0x00,//Set,Bypass,Algorithm.,Bypass,is,enabled,for,:,High,Pass,Filter,,Maxx3D,,
   1499              0x00,0xE1,0x70,//Set,MaxxBass,Noise,Gate,Threshold,:,-70,dB
   1500              0x00,0xE2,0x00,//Set,MaxxBass,Noise,Gate,Gap,:,-0,dB
   1501              0x00,0xD7,0x60,//Set,SubCrossover,:,80.0,Hz
   1502          //    0x01,0xD0,0x7E,//Set,MaxxVolume,Gain,:,-3.60,dB
   1503          
   1504              0x00,0xA1,0x05,//Load,PEQ,Start,
   1505              0x00,0x00,0x00,//Ch:,1,
   1506              0x00,0x00,0x01,//Type:,Low,Shelf,,
   1507              0x00,0x00,0x22,//Freq:,114,Hz,
   1508              0x00,0x00,0x06,//Q:,0.66,
   1509              0x00,0x00,0x00,//Gain:,-18.0,
   1510              0x00,0xD8,0x00,//Load,PEQ,End,
   1511              0x00,0xA1,0x05,//Load,PEQ,Start,
   1512              0x00,0x00,0x01,//Ch:,2,
   1513              0x00,0x00,0x00,//Type:,Bell,,,,,,,
   1514              0x00,0x00,0x22,//Freq:,114,Hz,
   1515              0x00,0x00,0x3A,//Q:,2.96,
   1516              0x00,0x00,0x00,//Gain:,-18.0,
   1517              0x00,0xD8,0x00,//Load,PEQ,End,
   1518              0x00,0xA1,0x05,//Load,PEQ,Start,
   1519              0x00,0x00,0x02,//Ch:,3,
   1520              0x00,0x00,0x00,//Type:,Bell,,,,,,,
   1521              0x00,0x00,0x27,//Freq:,152,Hz,
   1522              0x00,0x00,0x3A,//Q:,2.96,
   1523              0x00,0x00,0x00,//Gain:,-18.0,
   1524              0x00,0xD8,0x00,//Load,PEQ,End,
   1525              0x00,0xA1,0x05,//Load,PEQ,Start,
   1526              0x00,0x00,0x03,//Ch:,4,
   1527              0x00,0x00,0x00,//Type:,Bell,,,,,,,
   1528              0x00,0x00,0x34,//Freq:,323,Hz,
   1529              0x00,0x00,0x04,//Q:,0.58,
   1530              0x00,0x00,0x4E,//Gain:,3.9,
   1531              0x00,0xD8,0x00,//Load,PEQ,End,
   1532              0x00,0xA1,0x05,//Load,PEQ,Start,
   1533              0x00,0x00,0x04,//Ch:,5,
   1534              0x00,0x00,0x00,//Type:,Bell,,,,,,,
   1535              0x00,0x00,0x3A,//Freq:,456,Hz,
   1536              0x00,0x00,0x0D,//Q:,0.97,
   1537              0x00,0x00,0x41,//Gain:,0.3,
   1538              0x00,0xD8,0x00,//Load,PEQ,End,
   1539              0x00,0xA1,0x05,//Load,PEQ,Start,
   1540              0x00,0x00,0x05,//Ch:,6,
   1541              0x00,0x00,0x00,//Type:,Bell,,,,,,,
   1542              0x00,0x00,0x48,//Freq:,1024,Hz,
   1543              0x00,0x00,0x3A,//Q:,2.96,
   1544              0x00,0x00,0x40,//Gain:,-0.0,
   1545              0x00,0xD8,0x00,//Load,PEQ,End,
   1546              0x00,0xA1,0x05,//Load,PEQ,Start,
   1547              0x00,0x00,0x06,//Ch:,7,
   1548              0x00,0x00,0x00,//Type:,Bell,,,,,,,
   1549              0x00,0x00,0x54,//Freq:,2048,Hz,
   1550              0x00,0x00,0x3A,//Q:,2.96,
   1551              0x00,0x00,0x40,//Gain:,-0.0,
   1552              0x00,0xD8,0x00,//Load,PEQ,End,
   1553              0x00,0xA1,0x05,//Load,PEQ,Start,
   1554              0x00,0x00,0x07,//Ch:,8,
   1555              0x00,0x00,0x00,//Type:,Bell,,,,,,,
   1556              0x00,0x00,0x60,//Freq:,4096,Hz,
   1557              0x00,0x00,0x3A,//Q:,2.96,
   1558              0x00,0x00,0x40,//Gain:,-0.0,
   1559              0x00,0xD8,0x00,//Load,PEQ,End,
   1560              0x00,0xA1,0x05,//Load,PEQ,Start,
   1561              0x00,0x00,0x08,//Ch:,9,
   1562              0x00,0x00,0x00,//Type:,Bell,,,,,,,
   1563              0x00,0x00,0x6C,//Freq:,8192,Hz,
   1564              0x00,0x00,0x0D,//Q:,0.97,
   1565              0x00,0x00,0x40,//Gain:,-0.0,
   1566              0x00,0xD8,0x00,//Load,PEQ,End,
   1567              0x00,0xA1,0x05,//Load,PEQ,Start,
   1568              0x00,0x00,0x09,//Ch:,10,
   1569              0x00,0x00,0x02,//Type:,High,Shelf,
   1570              0x00,0x00,0x6A,//Freq:,7298,Hz,
   1571              0x00,0x00,0x06,//Q:,0.66,
   1572              0x00,0x00,0x52,//Gain:,5.1,
   1573              0x00,0xD8,0x00,//Load,PEQ,End,
   1574          #if 0
   1575              0x00,0xCF,0x01,//Set,Bypass,Algorithm.,Bypass,is,enabled,for,:,High,Pass,Filter,,
   1576              0x00,0xD1,0x00,//Set,MaxxBass,Intensity,:,0.0,%
   1577              0x00,0xD1,0x09,//Set,MaxxBass,Intensity,:,7.1,%
   1578              0x00,0xD1,0x12,//Set,MaxxBass,Intensity,:,14.2,%
   1579              0x00,0xD1,0x1B,//Set,MaxxBass,Intensity,:,21.3,%
   1580              0x00,0xD1,0x24,//Set,MaxxBass,Intensity,:,28.3,%
   1581              0x00,0xD1,0x2D,//Set,MaxxBass,Intensity,:,35.4,%
   1582              0x00,0xD1,0x36,//Set,MaxxBass,Intensity,:,42.5,%
   1583              0x00,0xD1,0x3F,//Set,MaxxBass,Intensity,:,49.6,%
   1584              0x00,0xD1,0x48,//Set,MaxxBass,Intensity,:,56.7,%
   1585              0x00,0xD1,0x4C,//Set,MaxxBass,Intensity,:,59.8,%
   1586              0x00,0xD1,0x26,//Set,MaxxBass,Intensity,:,29.9,%
   1587          
   1588              0x00,0xCF,0x04,//Set,Bypass,Algorithm.,Bypass,is,enabled,for,:,Maxx3D,,
   1589          #endif  
   1590              0x00,0xD1,0x4C,//Set,MaxxBass,Intensity,:,59.8,%
   1591              0x00,0xCF,0x00,//Set,Bypass,Algorithm.,Bypass,is,enabled,for,:,Maxx3D,,MaxxDialog,,MaxxTreble,,    
   1592              0x00,0xD2,0x19,//Set,MaxxTreble,Intensity,:,19.7,%
   1593              0x00,0xCF,0x00,//Set,Bypass,Algorithm.,Bypass,is,enabled,for,:,High,Pass,Filter,,Maxx3D,,    
   1594              
   1595              0x00,0xD3,0x00,//Set,Maxx3D,Intensity,
   1596              0x00,0xD6,0x00,//Set,Maxx3D,Mode,
   1597          
   1598              0x00,0xCF,0x00,//Set,Bypass,Algorithm.,Bypass,is,disabled,for,all,algorithms.,
   1599          
   1600              0x00,0xE8,0x3F,//Set,MaxxDialog,Level,:,49.6,%
   1601              0x00,0xE9,0x4C,//Set,MaxxDialog,Side,Level,:,59.8,%
   1602              0x00,0xCF,0x00,//Set,Bypass,Algorithm.,Bypass,is,enabled,for,:,High,Pass,Filter,,Maxx3D,,
   1603          //    0x00,0xCF,0x05,//Set,Bypass,Algorithm.,Bypass,is,enabled,for,:,High,Pass,Filter,,Maxx3D,,
   1604          };
   1605          #if 1
   1606          #pragma location="DSP_EQ_DATA"

   \                                 In segment DSP_EQ_DATA, align 1
   1607          const __code u8 g_abMaxxDSP_EQ_TV[258] =
   \                     g_abMaxxDSP_EQ_TV:
   \   000000   00D54300     DB 0, 213, 67, 0, 227, 131, 0, 207, 4, 0, 225, 53, 0, 226, 18, 0, 215
   \            E38300CF
   \            0400E135
   \            00E21200
   \            D7      
   \   000011   7600A105     DB 118, 0, 161, 5, 0, 0, 0, 0, 0, 0, 0, 0, 12, 0, 0, 22, 0, 0, 73, 0
   \            00000000
   \            00000000
   \            0C000016
   \            00004900
   \   000025   D80000A1     DB 216, 0, 0, 161, 5, 0, 0, 1, 0, 0, 0, 0, 0, 25, 0, 0, 58, 0, 0, 73, 0
   \            05000001
   \            00000000
   \            00190000
   \            3A000049
   \            00      
   \   00003A   D80000A1     DB 216, 0, 0, 161, 5, 0, 0, 2, 0, 0, 0, 0, 0, 36, 0, 0, 58, 0, 0, 72, 0
   \            05000002
   \            00000000
   \            00240000
   \            3A000048
   \            00      
   \   00004F   D80000A1     DB 216, 0, 0, 161, 5, 0, 0, 3, 0, 0, 0, 0, 0, 48, 0, 0, 58, 0, 0, 70, 0
   \            05000003
   \            00000000
   \            00300000
   \            3A000046
   \            00      
   \   000064   D80000A1     DB 216, 0, 0, 161, 5, 0, 0, 4, 0, 0, 0, 0, 0, 60, 0, 0, 58, 0, 0, 80, 0
   \            05000004
   \            00000000
   \            003C0000
   \            3A000050
   \            00      
   \   000079   D80000A1     DB 216, 0, 0, 161, 5, 0, 0, 5, 0, 0, 0, 0, 0, 72, 0, 0, 58, 0, 0, 86, 0
   \            05000005
   \            00000000
   \            00480000
   \            3A000056
   \            00      
   \   00008E   D80000A1     DB 216, 0, 0, 161, 5, 0, 0, 6, 0, 0, 0, 0, 0, 86, 0, 0, 58, 0, 0, 86, 0
   \            05000006
   \            00000000
   \            00560000
   \            3A000056
   \            00      
   \   0000A3   D80000A1     DB 216, 0, 0, 161, 5, 0, 0, 7, 0, 0, 0, 0, 0, 99, 0, 0, 58, 0, 0, 87, 0
   \            05000007
   \            00000000
   \            00630000
   \            3A000057
   \            00      
   \   0000B8   D80000A1     DB 216, 0, 0, 161, 5, 0, 0, 8, 0, 0, 0, 0, 0, 110, 0, 0, 58, 0, 0, 99
   \            05000008
   \            00000000
   \            006E0000
   \            3A000063
   \   0000CC   00D80000     DB 0, 216, 0, 0, 161, 5, 0, 0, 9, 0, 0, 0, 0, 0, 121, 0, 0, 22, 0, 0
   \            A1050000
   \            09000000
   \            00007900
   \            00160000
   \   0000E0   6300D800     DB 99, 0, 216, 0, 0, 209, 46, 0, 207, 4, 0, 210, 63, 0, 207, 4, 0, 211
   \            00D12E00
   \            CF0400D2
   \            3F00CF04
   \            00D3    
   \   0000F2   0000D600     DB 0, 0, 214, 0, 0, 207, 4, 0, 232, 83, 0, 233, 97, 0, 207, 0
   \            00CF0400
   \            E85300E9
   \            6100CF00
   1608          {
   1609              0x00,0xD5,0x43,//Set,MaxxBass,Cutoff,Freq,:,34.5,Hz
   1610              0x00,0xE3,0x83,//Set,Front,High-Pass,Freq,:,219.9,Hz
   1611              0x00,0xCF,0x04,//Set,Bypass,Algorithm.,Bypass,is,enabled,for,:,Maxx3D,,
   1612              0x00,0xE1,0x35,//Set,MaxxBass,Noise,Gate,Threshold,:,-41,dB    
   1613              0x00,0xE2,0x12,//Set,MaxxBass,Noise,Gate,Gap,:,-18,dB
   1614              0x00,0xD7,0x76,//Set,SubCrossover,:,151.1,Hz
   1615          //    0x01,0xD0,0x87,//Set,MaxxVolume,Gain,:,-1.80,dB
   1616              
   1617              0x00,0xA1,0x05,//Load,PEQ,Start,
   1618              0x00,0x00,0x00,//Ch:,1,
   1619              0x00,0x00,0x00,//Type:,Bell,,,,,,,
   1620              0x00,0x00,0x0C,//Freq:,32,Hz,
   1621              0x00,0x00,0x16,//Q:,1.37,
   1622              0x00,0x00,0x49,//Gain:,2.5,
   1623              0x00,0xD8,0x00,//Load,PEQ,End,
   1624              0x00,0xA1,0x05,//Load,PEQ,Start,
   1625              0x00,0x00,0x01,//Ch:,2,
   1626              0x00,0x00,0x00,//Type:,Bell,,,,,,,
   1627              0x00,0x00,0x19,//Freq:,68,Hz,
   1628              0x00,0x00,0x3A,//Q:,2.96,
   1629              0x00,0x00,0x49,//Gain:,2.5,
   1630              0x00,0xD8,0x00,//Load,PEQ,End,
   1631              0x00,0xA1,0x05,//Load,PEQ,Start,
   1632              0x00,0x00,0x02,//Ch:,3,
   1633              0x00,0x00,0x00,//Type:,Bell,,,,,,,
   1634              0x00,0x00,0x24,//Freq:,128,Hz,
   1635              0x00,0x00,0x3A,//Q:,2.96,
   1636              0x00,0x00,0x48,//Gain:,2.2,
   1637              0x00,0xD8,0x00,//Load,PEQ,End,
   1638              0x00,0xA1,0x05,//Load,PEQ,Start,
   1639              0x00,0x00,0x03,//Ch:,4,
   1640              0x00,0x00,0x00,//Type:,Bell,,,,,,,
   1641              0x00,0x00,0x30,//Freq:,256,Hz,
   1642              0x00,0x00,0x3A,//Q:,2.96,
   1643              0x00,0x00,0x46,//Gain:,1.7,
   1644              0x00,0xD8,0x00,//Load,PEQ,End,
   1645              0x00,0xA1,0x05,//Load,PEQ,Start,
   1646              0x00,0x00,0x04,//Ch:,5,
   1647              0x00,0x00,0x00,//Type:,Bell,,,,,,,
   1648              0x00,0x00,0x3C,//Freq:,512,Hz,
   1649              0x00,0x00,0x3A,//Q:,2.96,
   1650              0x00,0x00,0x50,//Gain:,4.5,
   1651              0x00,0xD8,0x00,//Load,PEQ,End,
   1652              0x00,0xA1,0x05,//Load,PEQ,Start,
   1653              0x00,0x00,0x05,//Ch:,6,
   1654              0x00,0x00,0x00,//Type:,Bell,,,,,,,
   1655              0x00,0x00,0x48,//Freq:,1024,Hz,
   1656              0x00,0x00,0x3A,//Q:,2.96,
   1657              0x00,0x00,0x56,//Gain:,6.2,
   1658              0x00,0xD8,0x00,//Load,PEQ,End,
   1659              0x00,0xA1,0x05,//Load,PEQ,Start,
   1660              0x00,0x00,0x06,//Ch:,7,
   1661              0x00,0x00,0x00,//Type:,Bell,,,,,,,
   1662              0x00,0x00,0x56,//Freq:,2299,Hz,
   1663              0x00,0x00,0x3A,//Q:,2.96,
   1664              0x00,0x00,0x56,//Gain:,6.2,
   1665              0x00,0xD8,0x00,//Load,PEQ,End,
   1666              0x00,0xA1,0x05,//Load,PEQ,Start,
   1667              0x00,0x00,0x07,//Ch:,8,
   1668              0x00,0x00,0x00,//Type:,Bell,,,,,,,
   1669              0x00,0x00,0x63,//Freq:,4871,Hz,
   1670              0x00,0x00,0x3A,//Q:,2.96,
   1671              0x00,0x00,0x57,//Gain:,6.5,
   1672              0x00,0xD8,0x00,//Load,PEQ,End,
   1673              0x00,0xA1,0x05,//Load,PEQ,Start,
   1674              0x00,0x00,0x08,//Ch:,9,
   1675              0x00,0x00,0x00,//Type:,Bell,,,,,,,
   1676              0x00,0x00,0x6E,//Freq:,9195,Hz,
   1677              0x00,0x00,0x3A,//Q:,2.96,
   1678              0x00,0x00,0x63,//Gain:,9.8,
   1679              0x00,0xD8,0x00,//Load,PEQ,End,
   1680              0x00,0xA1,0x05,//Load,PEQ,Start,
   1681              0x00,0x00,0x09,//Ch:,10,
   1682              0x00,0x00,0x00,//Type:,Bell,,,,,,,
   1683              0x00,0x00,0x79,//Freq:,17358,Hz,
   1684              0x00,0x00,0x16,//Q:,1.37,
   1685              0x00,0x00,0x63,//Gain:,9.8,
   1686              0x00,0xD8,0x00,//Load,PEQ,End,
   1687          #if 0
   1688              0x00,0xCF,0x01,//Set,Bypass,Algorithm.,Bypass,is,enabled,for,:,High,Pass,Filter,,
   1689              0x00,0xD1,0x00,//Set,MaxxBass,Intensity,:,0.0,%
   1690              0x00,0xD1,0x09,//Set,MaxxBass,Intensity,:,7.1,%
   1691              0x00,0xD1,0x12,//Set,MaxxBass,Intensity,:,14.2,%
   1692              0x00,0xD1,0x1B,//Set,MaxxBass,Intensity,:,21.3,%
   1693              0x00,0xD1,0x24,//Set,MaxxBass,Intensity,:,28.3,%
   1694              0x00,0xD1,0x2D,//Set,MaxxBass,Intensity,:,35.4,%
   1695              0x00,0xD1,0x36,//Set,MaxxBass,Intensity,:,42.5,%
   1696              0x00,0xD1,0x3F,//Set,MaxxBass,Intensity,:,49.6,%
   1697              0x00,0xD1,0x48,//Set,MaxxBass,Intensity,:,56.7,%
   1698              0x00,0xD1,0x4C,//Set,MaxxBass,Intensity,:,59.8,%
   1699              0x00,0xD1,0x2E,//Set,MaxxBass,Intensity,:,36.2,%
   1700              0x00,0xCF,0x04,//Set,Bypass,Algorithm.,Bypass,is,enabled,for,:,Maxx3D,,
   1701          #endif 
   1702              0x00,0xD1,0x2E,//Set,MaxxBass,Intensity,:,36.2,%
   1703              0x00,0xCF,0x04,//Set,Bypass,Algorithm.,Bypass,is,enabled,for,:,Maxx3D,,
   1704              0x00,0xD2,0x3F,//Set,MaxxTreble,Intensity,:,49.6,%
   1705              0x00,0xCF,0x04,//Set,Bypass,Algorithm.,Bypass,is,enabled,for,:,Maxx3D,,
   1706              
   1707              0x00,0xD3,0x00,//Set,Maxx3D,Intensity,
   1708              0x00,0xD6,0x00,//Set,Maxx3D,Mode,
   1709          
   1710              0x00,0xCF,0x04,//Set,Bypass,Algorithm.,Bypass,is,disabled,for,all,algorithms.,
   1711              0x00,0xE8,0x53,//Set,MaxxDialog,Level,:,65.4,%
   1712              0x00,0xE9,0x61,//Set,MaxxDialog,Side,Level,:,76.4,%
   1713              0x00,0xCF,0x00,//Set,Bypass,Algorithm.,Bypass,is,disabled,for,all,algorithms.,
   1714          };
   1715          #endif
   1716          
   1717          #pragma location="DSP_EQ_DATA"

   \                                 In segment DSP_EQ_DATA, align 1
   1718          const __code u8 g_abMaxxDSP_EQ_MOVIE[258] =
   \                     g_abMaxxDSP_EQ_MOVIE:
   \   000000   00D55200     DB 0, 213, 82, 0, 207, 1, 0, 227, 128, 0, 225, 82, 0, 226, 47, 0, 215
   \            CF0100E3
   \            8000E152
   \            00E22F00
   \            D7      
   \   000011   8000A105     DB 128, 0, 161, 5, 0, 0, 0, 0, 0, 0, 0, 0, 10, 0, 0, 13, 0, 0, 64, 0
   \            00000000
   \            00000000
   \            0A00000D
   \            00004000
   \   000025   D80000A1     DB 216, 0, 0, 161, 5, 0, 0, 1, 0, 0, 0, 0, 0, 38, 0, 0, 13, 0, 0, 58, 0
   \            05000001
   \            00000000
   \            00260000
   \            0D00003A
   \            00      
   \   00003A   D80000A1     DB 216, 0, 0, 161, 5, 0, 0, 2, 0, 0, 4, 0, 0, 29, 0, 0, 23, 0, 0, 67, 0
   \            05000002
   \            00000400
   \            001D0000
   \            17000043
   \            00      
   \   00004F   D80000A1     DB 216, 0, 0, 161, 5, 0, 0, 3, 0, 0, 0, 0, 0, 52, 0, 0, 58, 0, 0, 36, 0
   \            05000003
   \            00000000
   \            00340000
   \            3A000024
   \            00      
   \   000064   D80000A1     DB 216, 0, 0, 161, 5, 0, 0, 4, 0, 0, 0, 0, 0, 60, 0, 0, 58, 0, 0, 51, 0
   \            05000004
   \            00000000
   \            003C0000
   \            3A000033
   \            00      
   \   000079   D80000A1     DB 216, 0, 0, 161, 5, 0, 0, 5, 0, 0, 0, 0, 0, 72, 0, 0, 58, 0, 0, 53, 0
   \            05000005
   \            00000000
   \            00480000
   \            3A000035
   \            00      
   \   00008E   D80000A1     DB 216, 0, 0, 161, 5, 0, 0, 6, 0, 0, 0, 0, 0, 84, 0, 0, 58, 0, 0, 56, 0
   \            05000006
   \            00000000
   \            00540000
   \            3A000038
   \            00      
   \   0000A3   D80000A1     DB 216, 0, 0, 161, 5, 0, 0, 7, 0, 0, 0, 0, 0, 96, 0, 0, 58, 0, 0, 60, 0
   \            05000007
   \            00000000
   \            00600000
   \            3A00003C
   \            00      
   \   0000B8   D80000A1     DB 216, 0, 0, 161, 5, 0, 0, 8, 0, 0, 0, 0, 0, 108, 0, 0, 58, 0, 0, 60
   \            05000008
   \            00000000
   \            006C0000
   \            3A00003C
   \   0000CC   00D80000     DB 0, 216, 0, 0, 161, 5, 0, 0, 9, 0, 0, 2, 0, 0, 120, 0, 0, 22, 0, 0
   \            A1050000
   \            09000002
   \            00007800
   \            00160000
   \   0000E0   3A00D800     DB 58, 0, 216, 0, 0, 209, 18, 0, 207, 1, 0, 210, 63, 0, 207, 1, 0, 211
   \            00D11200
   \            CF0100D2
   \            3F00CF01
   \            00D3    
   \   0000F2   3C00D60E     DB 60, 0, 214, 14, 0, 207, 1, 0, 232, 88, 0, 233, 88, 0, 207, 1
   \            00CF0100
   \            E85800E9
   \            5800CF01
   1719          {
   1720              0x00,0xD5,0x52,//Set,MaxxBass,Cutoff,Freq,:,53.1,Hz
   1721              0x00,0xCF,0x01,//Set,Bypass,Algorithm.,Bypass,is,enabled,for,:,High,Pass,Filter,,Maxx3D,,
   1722              0x00,0xE3,0x80,//Set,Front,High-Pass,Freq,:,201.6,Hz
   1723              0x00,0xE1,0x52,//Set,MaxxBass,Noise,Gate,Threshold,:,-70,dB
   1724              0x00,0xE2,0x2F,//Set,MaxxBass,Noise,Gate,Gap,:,-47,dB
   1725              0x00,0xD7,0x80,//Set,SubCrossover,:,201.6,Hz
   1726          //    0x01,0xD0,0x7E,//Set,MaxxVolume,Gain,:,-3.60,dB
   1727          
   1728              0x00,0xA1,0x05,//Load,PEQ,Start,
   1729              0x00,0x00,0x00,//Ch:,1,
   1730              0x00,0x00,0x00,//Type:,Bell,,,,,,,
   1731              0x00,0x00,0x0A,//Freq:,29,Hz,
   1732              0x00,0x00,0x0D,//Q:,0.97,
   1733              0x00,0x00,0x40,//Gain:,-0.0,
   1734              0x00,0xD8,0x00,//Load,PEQ,End,
   1735              0x00,0xA1,0x05,//Load,PEQ,Start,
   1736              0x00,0x00,0x01,//Ch:,2,
   1737              0x00,0x00,0x00,//Type:,Bell,,,,,,,
   1738              0x00,0x00,0x26,//Freq:,144,Hz,
   1739              0x00,0x00,0x0D,//Q:,0.97,
   1740              0x00,0x00,0x3A,//Gain:,-1.7,
   1741              0x00,0xD8,0x00,//Load,PEQ,End,
   1742              0x00,0xA1,0x05,//Load,PEQ,Start,
   1743              0x00,0x00,0x02,//Ch:,3,
   1744              0x00,0x00,0x04,//Type:,High,Pass,,
   1745              0x00,0x00,0x1D,//Freq:,85,Hz,
   1746              0x00,0x00,0x17,//Q:,1.41,
   1747              0x00,0x00,0x43,//Gain:,0.8,
   1748              0x00,0xD8,0x00,//Load,PEQ,End,
   1749              0x00,0xA1,0x05,//Load,PEQ,Start,
   1750              0x00,0x00,0x03,//Ch:,4,
   1751              0x00,0x00,0x00,//Type:,Bell,,,,,,,
   1752              0x00,0x00,0x34,//Freq:,323,Hz,
   1753              0x00,0x00,0x3A,//Q:,2.96,
   1754              0x00,0x00,0x24,//Gain:,-7.9,
   1755              0x00,0xD8,0x00,//Load,PEQ,End,
   1756              0x00,0xA1,0x05,//Load,PEQ,Start,
   1757              0x00,0x00,0x04,//Ch:,5,
   1758              0x00,0x00,0x00,//Type:,Bell,,,,,,,
   1759              0x00,0x00,0x3C,//Freq:,512,Hz,
   1760              0x00,0x00,0x3A,//Q:,2.96,
   1761              0x00,0x00,0x33,//Gain:,-3.7,
   1762              0x00,0xD8,0x00,//Load,PEQ,End,
   1763              0x00,0xA1,0x05,//Load,PEQ,Start,
   1764              0x00,0x00,0x05,//Ch:,6,
   1765              0x00,0x00,0x00,//Type:,Bell,,,,,,,
   1766              0x00,0x00,0x48,//Freq:,1024,Hz,
   1767              0x00,0x00,0x3A,//Q:,2.96,
   1768              0x00,0x00,0x35,//Gain:,-3.1,
   1769              0x00,0xD8,0x00,//Load,PEQ,End,
   1770              0x00,0xA1,0x05,//Load,PEQ,Start,
   1771              0x00,0x00,0x06,//Ch:,7,
   1772              0x00,0x00,0x00,//Type:,Bell,,,,,,,
   1773              0x00,0x00,0x54,//Freq:,2048,Hz,
   1774              0x00,0x00,0x3A,//Q:,2.96,
   1775              0x00,0x00,0x38,//Gain:,-2.3,
   1776              0x00,0xD8,0x00,//Load,PEQ,End,
   1777              0x00,0xA1,0x05,//Load,PEQ,Start,
   1778              0x00,0x00,0x07,//Ch:,8,
   1779              0x00,0x00,0x00,//Type:,Bell,,,,,,,
   1780              0x00,0x00,0x60,//Freq:,4096,Hz,
   1781              0x00,0x00,0x3A,//Q:,2.96,
   1782              0x00,0x00,0x3C,//Gain:,-1.1,
   1783              0x00,0xD8,0x00,//Load,PEQ,End,
   1784              0x00,0xA1,0x05,//Load,PEQ,Start,
   1785              0x00,0x00,0x08,//Ch:,9,
   1786              0x00,0x00,0x00,//Type:,Bell,,,,,,,
   1787              0x00,0x00,0x6C,//Freq:,8192,Hz,
   1788              0x00,0x00,0x3A,//Q:,2.96,
   1789              0x00,0x00,0x3C,//Gain:,-1.1,
   1790              0x00,0xD8,0x00,//Load,PEQ,End,
   1791              0x00,0xA1,0x05,//Load,PEQ,Start,
   1792              0x00,0x00,0x09,//Ch:,10,
   1793              0x00,0x00,0x02,//Type:,High,Shelf,
   1794              0x00,0x00,0x78,//Freq:,16384,Hz,
   1795              0x00,0x00,0x16,//Q:,1.37,
   1796              0x00,0x00,0x3A,//Gain:,-1.7,
   1797              0x00,0xD8,0x00,//Load,PEQ,End,
   1798          #if 0
   1799              0x00,0xCF,0x01,//Set,Bypass,Algorithm.,Bypass,is,enabled,for,:,High,Pass,Filter,,
   1800              0x00,0xD1,0x00,//Set,MaxxBass,Intensity,:,0.0,%
   1801              0x00,0xD1,0x09,//Set,MaxxBass,Intensity,:,7.1,%
   1802              0x00,0xD1,0x12,//Set,MaxxBass,Intensity,:,14.2,%
   1803              0x00,0xD1,0x1B,//Set,MaxxBass,Intensity,:,21.3,%
   1804              0x00,0xD1,0x24,//Set,MaxxBass,Intensity,:,28.3,%
   1805              0x00,0xD1,0x2D,//Set,MaxxBass,Intensity,:,35.4,%
   1806              0x00,0xD1,0x36,//Set,MaxxBass,Intensity,:,42.5,%
   1807              0x00,0xD1,0x3F,//Set,MaxxBass,Intensity,:,49.6,%
   1808              0x00,0xD1,0x48,//Set,MaxxBass,Intensity,:,56.7,%
   1809              0x00,0xD1,0x4C,//Set,MaxxBass,Intensity,:,59.8,%
   1810              0x00,0xD1,0x26,//Set,MaxxBass,Intensity,:,29.9,%
   1811          
   1812              0x00,0xCF,0x04,//Set,Bypass,Algorithm.,Bypass,is,enabled,for,:,Maxx3D,,
   1813          #endif  
   1814              0x00,0xD1,0x12,//Set,MaxxBass,Intensity,:,14.2,%
   1815              0x00,0xCF,0x01,//Set,Bypass,Algorithm.,Bypass,is,enabled,for,:,High,Pass,Filter,,Maxx3D,,
   1816              0x00,0xD2,0x3F,//Set,MaxxTreble,Intensity,:,19.7,%
   1817              0x00,0xCF,0x01,//Set,Bypass,Algorithm.,Bypass,is,enabled,for,:,High,Pass,Filter,,Maxx3D,,
   1818              
   1819              0x00,0xD3,0x3C,//Set,Maxx3D,Intensity,:,47.2,%
   1820              0x00,0xD6,0x0E,//Set,Maxx3D,Mode,:,SF,44.1KHz/48KHz,,Speaker,Span,Normal,,Low-Pass,3,dB
   1821          
   1822              0x00,0xCF,0x01,//Set,Bypass,Algorithm.,Bypass,is,disabled,for,all,algorithms.,
   1823              0x00,0xE8,0x58,//Set,MaxxDialog,Level,:,69.3,%
   1824              0x00,0xE9,0x58,//Set,MaxxDialog,Side,Level,:,69.3,%
   1825              0x00,0xCF,0x01,//Set,Bypass,Algorithm.,Bypass,is,enabled,for,:,High,Pass,Filter,,Maxx3D,,
   1826            
   1827          };
   1828          
   1829          #if 0
   1830          #pragma location="DSP_EQ_DATA"
   1831          const __code u8 g_abMaxxDSP_EQ_MOVIE[291] =
   1832          {
   1833              0x00,0xD5,0x48,//Set,MaxxBass,Cutoff,Freq,:,39.8,Hz 
   1834              0x00,0xE3,0x80,//Set,Front,High-Pass,Freq,:,201.6,Hz
   1835              0x00,0xCF,0x00,//Set,Bypass,Algorithm.,Bypass,is,disabled,for,all,algorithms.,   
   1836              0x00,0xE1,0x5C,//Set,MaxxBass,Noise,Gate,Threshold,:,-80,dB
   1837              0x00,0xE2,0x28,//Set,MaxxBass,Noise,Gate,Gap,:,-40,dB
   1838              0x00,0xD7,0x71,//Set,SubCrossover,:,130.7,Hz
   1839          //    0x01,0xD0,0x79,//Set,MaxxVolume,Gain,:,-4.60,dB  
   1840              
   1841              0x00,0xA1,0x05,//Load,PEQ,Start,
   1842              0x00,0x00,0x00,//Ch:,1,
   1843              0x00,0x00,0x00,//Type:,Bell,,,,,,,
   1844              0x00,0x00,0x0C,//Freq:,32,Hz,
   1845              0x00,0x00,0x16,//Q:,1.37,
   1846              0x00,0x00,0x5E,//Gain:,8.4,
   1847              0x00,0xD8,0x00,//Load,PEQ,End,
   1848              0x00,0xA1,0x05,//Load,PEQ,Start,
   1849              0x00,0x00,0x01,//Ch:,2,
   1850              0x00,0x00,0x00,//Type:,Bell,,,,,,,
   1851              0x00,0x00,0x18,//Freq:,64,Hz,
   1852              0x00,0x00,0x3A,//Q:,2.96,
   1853              0x00,0x00,0x57,//Gain:,6.5,
   1854              0x00,0xD8,0x00,//Load,PEQ,End,
   1855              0x00,0xA1,0x05,//Load,PEQ,Start,
   1856              0x00,0x00,0x02,//Ch:,3,
   1857              0x00,0x00,0x00,//Type:,Bell,,,,,,,
   1858              0x00,0x00,0x24,//Freq:,128,Hz,
   1859              0x00,0x00,0x3A,//Q:,2.96,
   1860              0x00,0x00,0x59,//Gain:,7.0,
   1861              0x00,0xD8,0x00,//Load,PEQ,End,
   1862              0x00,0xA1,0x05,//Load,PEQ,Start,
   1863              0x00,0x00,0x03,//Ch:,4,
   1864              0x00,0x00,0x00,//Type:,Bell,,,,,,,
   1865              0x00,0x00,0x30,//Freq:,256,Hz,
   1866              0x00,0x00,0x3A,//Q:,2.96,
   1867              0x00,0x00,0x54,//Gain:,5.6,
   1868              0x00,0xD8,0x00,//Load,PEQ,End,
   1869              0x00,0xA1,0x05,//Load,PEQ,Start,
   1870              0x00,0x00,0x04,//Ch:,5,
   1871              0x00,0x00,0x00,//Type:,Bell,,,,,,,
   1872              0x00,0x00,0x3C,//Freq:,512,Hz,
   1873              0x00,0x00,0x3A,//Q:,2.96,
   1874              0x00,0x00,0x54,//Gain:,5.6,
   1875              0x00,0xD8,0x00,//Load,PEQ,End,
   1876              0x00,0xA1,0x05,//Load,PEQ,Start,
   1877              0x00,0x00,0x05,//Ch:,6,
   1878              0x00,0x00,0x00,//Type:,Bell,,,,,,,
   1879              0x00,0x00,0x48,//Freq:,1024,Hz,
   1880              0x00,0x00,0x3A,//Q:,2.96,
   1881              0x00,0x00,0x51,//Gain:,4.8,
   1882              0x00,0xD8,0x00,//Load,PEQ,End,
   1883              0x00,0xA1,0x05,//Load,PEQ,Start,
   1884              0x00,0x00,0x06,//Ch:,7,
   1885              0x00,0x00,0x00,//Type:,Bell,,,,,,,
   1886              0x00,0x00,0x56,//Freq:,2299,Hz,
   1887              0x00,0x00,0x3A,//Q:,2.96,
   1888              0x00,0x00,0x56,//Gain:,6.2,
   1889              0x00,0xD8,0x00,//Load,PEQ,End,
   1890              0x00,0xA1,0x05,//Load,PEQ,Start,
   1891              0x00,0x00,0x07,//Ch:,8,
   1892              0x00,0x00,0x00,//Type:,Bell,,,,,,,
   1893              0x00,0x00,0x63,//Freq:,4871,Hz,
   1894              0x00,0x00,0x3A,//Q:,2.96,
   1895              0x00,0x00,0x4E,//Gain:,3.9,
   1896              0x00,0xD8,0x00,//Load,PEQ,End,
   1897              0x00,0xA1,0x05,//Load,PEQ,Start,
   1898              0x00,0x00,0x08,//Ch:,9,
   1899              0x00,0x00,0x00,//Type:,Bell,,,,,,,
   1900              0x00,0x00,0x71,//Freq:,10935,Hz,
   1901              0x00,0x00,0x3A,//Q:,2.96,
   1902              0x00,0x00,0x4F,//Gain:,4.2,
   1903              0x00,0xD8,0x00,//Load,PEQ,End,
   1904              0x00,0xA1,0x05,//Load,PEQ,Start,
   1905              0x00,0x00,0x09,//Ch:,10,
   1906              0x00,0x00,0x00,//Type:,Bell,,,,,,,
   1907              0x00,0x00,0x79,//Freq:,17358,Hz,
   1908              0x00,0x00,0x16,//Q:,1.37,
   1909              0x00,0x00,0x51,//Gain:,4.8,
   1910              0x00,0xD8,0x00,//Load,PEQ,End,
   1911          
   1912              0x00,0xCF,0x01,//Set,Bypass,Algorithm.,Bypass,is,enabled,for,:,High,Pass,Filter,,
   1913              0x00,0xD1,0x00,//Set,MaxxBass,Intensity,:,0.0,%
   1914              0x00,0xD1,0x09,//Set,MaxxBass,Intensity,:,7.1,%
   1915              0x00,0xD1,0x12,//Set,MaxxBass,Intensity,:,14.2,%
   1916              0x00,0xD1,0x1B,//Set,MaxxBass,Intensity,:,21.3,%
   1917              0x00,0xD1,0x24,//Set,MaxxBass,Intensity,:,28.3,%
   1918              0x00,0xD1,0x2D,//Set,MaxxBass,Intensity,:,35.4,%
   1919              0x00,0xD1,0x36,//Set,MaxxBass,Intensity,:,42.5,%
   1920              0x00,0xD1,0x3F,//Set,MaxxBass,Intensity,:,49.6,%
   1921              0x00,0xD1,0x48,//Set,MaxxBass,Intensity,:,56.7,%
   1922              0x00,0xD1,0x4C,//Set,MaxxBass,Intensity,:,59.8,%
   1923              0x00,0xD1,0x3C,//Set,MaxxBass,Intensity,:,47.2,%
   1924              
   1925              0x00,0xCF,0x00,//Set,Bypass,Algorithm.,Bypass,is,disabled,for,all,algorithms.,
   1926              0x00,0xD2,0x3F,//Set,MaxxTreble,Intensity,:,49.6,%
   1927              0x00,0xCF,0x00,//Set,Bypass,Algorithm.,Bypass,is,disabled,for,all,algorithms.,
   1928          
   1929              0x00,0xD3,0x3C,//Set,Maxx3D,Intensity,:,47.2,%
   1930              0x00,0xD6,0x07,//Set,Maxx3D,Mode,:,SF,44.1KHz/48KHz,,Speaker,Span,Narrow,,Low-Pass,7,dB
   1931              
   1932              0x00,0xCF,0x00,//Set,Bypass,Algorithm.,Bypass,is,disabled,for,all,algorithms.,
   1933              0x00,0xE8,0x65,//Set,MaxxDialog,Level,:,79.5,%
   1934              0x00,0xE9,0x65,//Set,MaxxDialog,Side,Level,:,79.5,%
   1935              0x00,0xCF,0x00,//Set,Bypass,Algorithm.,Bypass,is,disabled,for,all,algorithms.,
   1936          };
   1937          #endif
   1938          
   1939          #pragma location="DSP_IIC_API1"

   \                                 In segment DSP_IIC_API1, align 1, keep-with-next
   1940          void Audio_I2C_Start(void)
   \                     Audio_I2C_Start:
   1941          {
   \   000000                ; Saved register size: 0
   \   000000                ; Auto size: 0
   1942          	TA5731_DATA_OUTPUT;
   \   000000   12....       LCALL   ?Subroutine5
   1943          	TA5731_CLK_OUTPUT;
   \                     ??CrossCallReturnLabel_7:
   \   000003   53BBEF       ANL     0xbb,#0xef
   \   000006   D294         SETB    0x90.4
   1944          	TA5731_DATA_HIGH;
   \   000008   D286         SETB    0x80.6
   1945          	TA5731_CLK_HIGH;
   \   00000A   D294         SETB    0x90.4
   1946              delay(30);
   \   00000C                ; Setup parameters for call to function delay
   \   00000C   7A1E         MOV     R2,#0x1e
   \   00000E   7B00         MOV     R3,#0x0
   \   000010   12....       LCALL   delay & 0xFFFF
   1947          	TA5731_DATA_LOW;
   \   000013   C286         CLR     0x80.6
   1948              delay(30);
   \   000015                ; Setup parameters for call to function delay
   \   000015   7A1E         MOV     R2,#0x1e
   \   000017   7B00         MOV     R3,#0x0
   \   000019   12....       LCALL   delay & 0xFFFF
   1949          	TA5731_CLK_LOW;
   \   00001C   C294         CLR     0x90.4
   1950          	//Delay_myself;
   1951          	//TA5731_DATA_HIGH;
   1952          }
   \   00001E   02....       LJMP    ?BRET

   \                                 In segment DSP_IIC_API1, align 1, keep-with-next
   \                     ?Subroutine5:
   \   000000   53BABF       ANL     0xba,#0xbf
   \   000003   D286         SETB    0x80.6
   \   000005   22           RET
   1953          
   1954          #pragma location="DSP_IIC_API1"

   \                                 In segment DSP_IIC_API1, align 1, keep-with-next
   1955          void Audio_I2C_Stop(void)
   \                     Audio_I2C_Stop:
   1956          {
   \   000000                ; Saved register size: 0
   \   000000                ; Auto size: 0
   1957          	TA5731_DATA_OUTPUT;
   \   000000   12....       LCALL   ?Subroutine5
   1958          	TA5731_DATA_LOW;
   \                     ??CrossCallReturnLabel_8:
   \   000003   C286         CLR     0x80.6
   1959              delay(30);
   \   000005                ; Setup parameters for call to function delay
   \   000005   12....       LCALL   ?Subroutine0
   1960          	TA5731_CLK_HIGH;
   1961              delay(30);
   1962          	TA5731_DATA_HIGH;
   \                     ??CrossCallReturnLabel_0:
   \   000008   D286         SETB    0x80.6
   1963              delay(30);
   \   00000A                ; Setup parameters for call to function delay
   \   00000A   7A1E         MOV     R2,#0x1e
   \   00000C   7B00         MOV     R3,#0x0
   \   00000E   12....       LCALL   delay & 0xFFFF
   1964          }
   \   000011   02....       LJMP    ?BRET

   \                                 In segment DSP_IIC_API1, align 1, keep-with-next
   \                     ?Subroutine0:
   \   000000   7A1E         MOV     R2,#0x1e
   \   000002   7B00         MOV     R3,#0x0
   \   000004   12....       LCALL   delay & 0xFFFF
   \   000007   D294         SETB    0x90.4
   \   000009                ; Setup parameters for call to function delay
   \   000009                ; Setup parameters for call to function delay
   \   000009                ; Setup parameters for call to function delay
   \   000009   7A1E         MOV     R2,#0x1e
   \   00000B   7B00         MOV     R3,#0x0
   \   00000D   12....       LCALL   delay & 0xFFFF
   \   000010   22           RET
   1965          
   1966          #pragma location="DSP_IIC_API1"

   \                                 In segment DSP_IIC_API1, align 1, keep-with-next
   1967          bool Audio_ReceiveACK(void)
   \                     Audio_ReceiveACK:
   1968          {
   \   000000   C0..         PUSH    ?VB
   \   000002                ; Saved register size: 1
   \   000002                ; Auto size: 0
   1969              bool Ackflag = false;
   1970          	
   1971          	TA5731_DATA_INPUT;
   \   000002   43BA40       ORL     0xba,#0x40
   1972              delay(30);
   \   000005                ; Setup parameters for call to function delay
   \   000005   12....       LCALL   ?Subroutine0
   1973          	TA5731_CLK_HIGH;
   1974              delay(30);
   1975          	
   1976          	if(TA5731_DATA) 
   \                     ??CrossCallReturnLabel_1:
   \   000008   A286         MOV     C,0x80.6
   \   00000A   5007         JNC     ??Audio_ReceiveACK_0
   1977              {   
   1978                  TA5731_DATA_OUTPUT;
   \   00000C   12....       LCALL   ?Subroutine5
   1979          		Ackflag = 1;
   \                     ??CrossCallReturnLabel_9:
   \   00000F   D2..         SETB    ?VB.0
   \   000011   8002         SJMP    ??Audio_ReceiveACK_1
   1980              }
   1981          	else 
   1982          		Ackflag = 0;
   \                     ??Audio_ReceiveACK_0:
   \   000013   C2..         CLR     ?VB.0
   1983          	
   1984          	TA5731_CLK_LOW;
   \                     ??Audio_ReceiveACK_1:
   \   000015   C294         CLR     0x90.4
   1985          		
   1986              delay(30);
   \   000017                ; Setup parameters for call to function delay
   \   000017   7A1E         MOV     R2,#0x1e
   \   000019   7B00         MOV     R3,#0x0
   \   00001B   12....       LCALL   delay & 0xFFFF
   1987          
   1988          	return Ackflag;
   \   00001E   A2..         MOV     C,?VB.0
   \   000020                REQUIRE ?Subroutine17
   \   000020                ; // Fall through to label ?Subroutine17
   1989          }

   \                                 In segment DSP_IIC_API1, align 1, keep-with-next
   \                     ?Subroutine17:
   \   000000   D0..         POP     ?VB
   \   000002   02....       LJMP    ?BRET
   1990          
   1991          #pragma location="DSP_IIC_API1"

   \                                 In segment DSP_IIC_API1, align 1, keep-with-next
   1992          void Audio_I2C_SendByte(u8 Data)
   \                     Audio_I2C_SendByte:
   1993          {
   \   000000   EE           MOV     A,R6
   \   000001   C0E0         PUSH    A
   \   000003   EF           MOV     A,R7
   \   000004   C0E0         PUSH    A
   \   000006                ; Saved register size: 2
   \   000006                ; Auto size: 0
   \   000006   E9           MOV     A,R1
   \   000007   FF           MOV     R7,A
   1994          	u32 i;
   1995          	
   1996              //delay(30);
   1997          	TA5731_DATA_OUTPUT;
   \   000008   12....       LCALL   ?Subroutine5
   1998          	
   1999          	for(i = 0;i < 8;i++)
   \                     ??CrossCallReturnLabel_10:
   \   00000B   7E08         MOV     R6,#0x8
   2000          	{
   2001          		if(Data & 0x80) TA5731_DATA_HIGH;
   \                     ??Audio_I2C_SendByte_0:
   \   00000D   EF           MOV     A,R7
   \   00000E   A2E7         MOV     C,0xE0 /* A   */.7
   \   000010   5004         JNC     ??Audio_I2C_SendByte_1
   \   000012   D286         SETB    0x80.6
   \   000014   8002         SJMP    ??Audio_I2C_SendByte_2
   2002          		else			TA5731_DATA_LOW;
   \                     ??Audio_I2C_SendByte_1:
   \   000016   C286         CLR     0x80.6
   2003          		delay(30);
   \                     ??Audio_I2C_SendByte_2:
   \   000018                ; Setup parameters for call to function delay
   \   000018   12....       LCALL   ?Subroutine0
   2004          		TA5731_CLK_HIGH;
   2005          		delay(30);
   2006          		Data <<= 1;
   \                     ??CrossCallReturnLabel_2:
   \   00001B   EF           MOV     A,R7
   \   00001C   C3           CLR     C
   \   00001D   33           RLC     A
   \   00001E   FF           MOV     R7,A
   2007          		TA5731_CLK_LOW;
   \   00001F   C294         CLR     0x90.4
   2008          	}
   \   000021   1E           DEC     R6
   \   000022   EE           MOV     A,R6
   \   000023   70E8         JNZ     ??Audio_I2C_SendByte_0
   2009          }
   \   000025   D0E0         POP     A
   \   000027   FF           MOV     R7,A
   \   000028                REQUIRE ?Subroutine16
   \   000028                ; // Fall through to label ?Subroutine16

   \                                 In segment DSP_IIC_API1, align 1, keep-with-next
   \                     ?Subroutine16:
   \   000000   D0E0         POP     A
   \   000002   FE           MOV     R6,A
   \   000003   02....       LJMP    ?BRET
   2010          #if 0
   2011          #pragma location="CS2313_CODE_API"
   2012          
   2013          #endif
   2014          
   2015          
   2016          #pragma location="DSP_IIC_API3"

   \                                 In segment DSP_IIC_API3, align 1, keep-with-next
   2017          void Audio_I2C_Start2(void)
   \                     Audio_I2C_Start2:
   2018          {
   \   000000                ; Saved register size: 0
   \   000000                ; Auto size: 0
   2019          	TA5731_DATA_OUTPUT;
   \   000000   12....       LCALL   ?Subroutine8
   2020          	TA5731_CLK_OUTPUT;
   \                     ??CrossCallReturnLabel_14:
   \   000003   53BBEF       ANL     0xbb,#0xef
   \   000006   D294         SETB    0x90.4
   2021          	TA5731_DATA_HIGH;
   \   000008   D286         SETB    0x80.6
   2022          	TA5731_CLK_HIGH;
   \   00000A   D294         SETB    0x90.4
   2023              delay(30);
   \   00000C                ; Setup parameters for call to function delay
   \   00000C   7A1E         MOV     R2,#0x1e
   \   00000E   7B00         MOV     R3,#0x0
   \   000010   12....       LCALL   delay & 0xFFFF
   2024          	TA5731_DATA_LOW;
   \   000013   C286         CLR     0x80.6
   2025              delay(30);
   \   000015                ; Setup parameters for call to function delay
   \   000015   7A1E         MOV     R2,#0x1e
   \   000017   7B00         MOV     R3,#0x0
   \   000019   12....       LCALL   delay & 0xFFFF
   2026          	TA5731_CLK_LOW;
   \   00001C   C294         CLR     0x90.4
   2027          	//Delay_myself;
   2028          	//TA5731_DATA_HIGH;
   2029          }
   \   00001E   02....       LJMP    ?BRET

   \                                 In segment DSP_IIC_API3, align 1, keep-with-next
   \                     ?Subroutine8:
   \   000000   53BABF       ANL     0xba,#0xbf
   \   000003   D286         SETB    0x80.6
   \   000005   22           RET
   2030          
   2031          #pragma location="DSP_IIC_API3"

   \                                 In segment DSP_IIC_API3, align 1, keep-with-next
   2032          void Audio_I2C_Stop2(void)
   \                     Audio_I2C_Stop2:
   2033          {
   \   000000                ; Saved register size: 0
   \   000000                ; Auto size: 0
   2034          	TA5731_DATA_OUTPUT;
   \   000000   12....       LCALL   ?Subroutine8
   2035          	TA5731_DATA_LOW;
   \                     ??CrossCallReturnLabel_15:
   \   000003   C286         CLR     0x80.6
   2036              delay(30);
   \   000005                ; Setup parameters for call to function delay
   \   000005   12....       LCALL   ?Subroutine7
   2037          	TA5731_CLK_HIGH;
   2038              delay(30);
   2039          	TA5731_DATA_HIGH;
   \                     ??CrossCallReturnLabel_11:
   \   000008   D286         SETB    0x80.6
   2040              delay(30);
   \   00000A                ; Setup parameters for call to function delay
   \   00000A   7A1E         MOV     R2,#0x1e
   \   00000C   7B00         MOV     R3,#0x0
   \   00000E   12....       LCALL   delay & 0xFFFF
   2041          }
   \   000011   02....       LJMP    ?BRET

   \                                 In segment DSP_IIC_API3, align 1, keep-with-next
   \                     ?Subroutine7:
   \   000000   7A1E         MOV     R2,#0x1e
   \   000002   7B00         MOV     R3,#0x0
   \   000004   12....       LCALL   delay & 0xFFFF
   \   000007   D294         SETB    0x90.4
   \   000009                ; Setup parameters for call to function delay
   \   000009                ; Setup parameters for call to function delay
   \   000009                ; Setup parameters for call to function delay
   \   000009   7A1E         MOV     R2,#0x1e
   \   00000B   7B00         MOV     R3,#0x0
   \   00000D   12....       LCALL   delay & 0xFFFF
   \   000010   22           RET
   2042          
   2043          #pragma location="DSP_IIC_API3"

   \                                 In segment DSP_IIC_API3, align 1, keep-with-next
   2044          bool Audio_ReceiveACK2(void)
   \                     Audio_ReceiveACK2:
   2045          {
   \   000000   C0..         PUSH    ?VB
   \   000002                ; Saved register size: 1
   \   000002                ; Auto size: 0
   2046              bool Ackflag = false;
   2047          	
   2048          	TA5731_DATA_INPUT;
   \   000002   43BA40       ORL     0xba,#0x40
   2049              delay(30);
   \   000005                ; Setup parameters for call to function delay
   \   000005   12....       LCALL   ?Subroutine7
   2050          	TA5731_CLK_HIGH;
   2051              delay(30);
   2052          	
   2053          	if(TA5731_DATA) 
   \                     ??CrossCallReturnLabel_12:
   \   000008   A286         MOV     C,0x80.6
   \   00000A   5007         JNC     ??Audio_ReceiveACK2_0
   2054              {   
   2055                  TA5731_DATA_OUTPUT;
   \   00000C   12....       LCALL   ?Subroutine8
   2056          		Ackflag = 1;
   \                     ??CrossCallReturnLabel_16:
   \   00000F   D2..         SETB    ?VB.0
   \   000011   8002         SJMP    ??Audio_ReceiveACK2_1
   2057              }
   2058          	else 
   2059          		Ackflag = 0;
   \                     ??Audio_ReceiveACK2_0:
   \   000013   C2..         CLR     ?VB.0
   2060          	
   2061          	TA5731_CLK_LOW;
   \                     ??Audio_ReceiveACK2_1:
   \   000015   C294         CLR     0x90.4
   2062          		
   2063              delay(30);
   \   000017                ; Setup parameters for call to function delay
   \   000017   7A1E         MOV     R2,#0x1e
   \   000019   7B00         MOV     R3,#0x0
   \   00001B   12....       LCALL   delay & 0xFFFF
   2064          
   2065          	return Ackflag;
   \   00001E   A2..         MOV     C,?VB.0
   \   000020   D0..         POP     ?VB
   \   000022   02....       LJMP    ?BRET
   2066          }
   2067          
   2068          #pragma location="DSP_IIC_API3"

   \                                 In segment DSP_IIC_API3, align 1, keep-with-next
   2069          void Audio_I2C_SendByte2(u8 Data)
   \                     Audio_I2C_SendByte2:
   2070          {
   \   000000   EE           MOV     A,R6
   \   000001   C0E0         PUSH    A
   \   000003   EF           MOV     A,R7
   \   000004   C0E0         PUSH    A
   \   000006                ; Saved register size: 2
   \   000006                ; Auto size: 0
   \   000006   E9           MOV     A,R1
   \   000007   FF           MOV     R7,A
   2071          	u32 i;
   2072          	
   2073              //delay(30);
   2074          	TA5731_DATA_OUTPUT;	
   \   000008   12....       LCALL   ?Subroutine8
   2075          	for(i = 0;i < 8;i++)
   \                     ??CrossCallReturnLabel_17:
   \   00000B   7E08         MOV     R6,#0x8
   2076          	{
   2077          		if(Data & 0x80) TA5731_DATA_HIGH;
   \                     ??Audio_I2C_SendByte2_0:
   \   00000D   EF           MOV     A,R7
   \   00000E   A2E7         MOV     C,0xE0 /* A   */.7
   \   000010   5004         JNC     ??Audio_I2C_SendByte2_1
   \   000012   D286         SETB    0x80.6
   \   000014   8002         SJMP    ??Audio_I2C_SendByte2_2
   2078          		else			TA5731_DATA_LOW;
   \                     ??Audio_I2C_SendByte2_1:
   \   000016   C286         CLR     0x80.6
   2079          		delay(30);
   \                     ??Audio_I2C_SendByte2_2:
   \   000018                ; Setup parameters for call to function delay
   \   000018   12....       LCALL   ?Subroutine7
   2080          		TA5731_CLK_HIGH;
   2081          		delay(30);
   2082          		Data <<= 1;
   \                     ??CrossCallReturnLabel_13:
   \   00001B   EF           MOV     A,R7
   \   00001C   C3           CLR     C
   \   00001D   33           RLC     A
   \   00001E   FF           MOV     R7,A
   2083          		TA5731_CLK_LOW;
   \   00001F   C294         CLR     0x90.4
   2084          	}
   \   000021   1E           DEC     R6
   \   000022   EE           MOV     A,R6
   \   000023   70E8         JNZ     ??Audio_I2C_SendByte2_0
   2085          }
   \   000025   D0E0         POP     A
   \   000027   FF           MOV     R7,A
   \   000028   02....       LJMP    ??Subroutine20_0

   \                                 In segment DSP_IIC_API3, align 1, keep-with-next
   \                     ?Subroutine20:
   \   000000   7900         MOV     R1,#0x0
   \   000002   90....       MOV     DPTR,#(spi_param_write8 & 0xffff)
   \   000005   74..         MOV     A,#((spi_param_write8 >> 16) & 0xff)
   \   000007   12....       LCALL   ?BCALL               ; Banked call to: DPTR()
   \                     ??Subroutine20_0:
   \   00000A   D0E0         POP     A
   \   00000C   FE           MOV     R6,A
   \   00000D   02....       LJMP    ?BRET
   2086          
   2087          
   2088          #pragma location="DSP_CODE_API3"

   \                                 In segment DSP_CODE_API3, align 1, keep-with-next
   2089          void AudioData_Init2(void)
   \                     AudioData_Init2:
   2090          {
   \   000000   7408         MOV     A,#0x8
   \   000002   12....       LCALL   ?FUNC_ENTER_SP
   \   000005                ; Saved register size: 11
   \   000005                ; Auto size: 0
   2091              u32 i;
   2092              //发起始信号
   2093              Audio_I2C_Start2();   
   \   000005                ; Setup parameters for call to function Audio_I2C_Start2
   \   000005   90....       MOV     DPTR,#(Audio_I2C_Start2 & 0xffff)
   \   000008   74..         MOV     A,#((Audio_I2C_Start2 >> 16) & 0xff)
   \   00000A   12....       LCALL   ?BCALL               ; Banked call to: DPTR()
   2094              //写从地址
   2095              Audio_I2C_SendByte2(MaxxDSPADDERSS);
   \   00000D                ; Setup parameters for call to function Audio_I2C_SendByte2
   \   00000D   79E6         MOV     R1,#-0x1a
   \   00000F   90....       MOV     DPTR,#(Audio_I2C_SendByte2 & 0xffff)
   \   000012   74..         MOV     A,#((Audio_I2C_SendByte2 >> 16) & 0xff)
   \   000014   12....       LCALL   ?BCALL               ; Banked call to: DPTR()
   2096              Audio_ReceiveACK2();
   \   000017                ; Setup parameters for call to function Audio_ReceiveACK2
   \   000017   90....       MOV     DPTR,#(Audio_ReceiveACK2 & 0xffff)
   \   00001A   74..         MOV     A,#((Audio_ReceiveACK2 >> 16) & 0xff)
   \   00001C   12....       LCALL   ?BCALL               ; Banked call to: DPTR()
   2097              // 写数据
   2098          #if 1    
   2099              for( i = 0 ;i< sizeof(g_abMaxxDSPCommands_4);i++)
   \   00001F   90....       MOV     DPTR,#__Constant_0
   \   000022   78..         MOV     R0,#?V0 + 4
   \   000024   12....       LCALL   ?L_MOV_C
   2100              {
   2101                  Audio_I2C_SendByte2(g_abMaxxDSPCommands_4[i]);
   \                     ??AudioData_Init2_0:
   \   000027                ; Setup parameters for call to function Audio_I2C_SendByte2
   \   000027   85....       MOV     ?V0 + 0,?V0 + 4
   \   00002A   85....       MOV     ?V0 + 1,?V0 + 5
   \   00002D   E5..         MOV     A,?V0 + 0
   \   00002F   24..         ADD     A,#(g_abMaxxDSPCommands_4 & 0xff)
   \   000031   F582         MOV     DPL,A
   \   000033   E5..         MOV     A,?V0 + 1
   \   000035   34..         ADDC    A,#((g_abMaxxDSPCommands_4 >> 8) & 0xff)
   \   000037   F583         MOV     DPH,A
   \   000039   E4           CLR     A
   \   00003A   93           MOVC    A,@A+DPTR
   \   00003B   F9           MOV     R1,A
   \   00003C   90....       MOV     DPTR,#(Audio_I2C_SendByte2 & 0xffff)
   \   00003F   74..         MOV     A,#((Audio_I2C_SendByte2 >> 16) & 0xff)
   \   000041   12....       LCALL   ?BCALL               ; Banked call to: DPTR()
   2102                  Audio_ReceiveACK2();
   \   000044                ; Setup parameters for call to function Audio_ReceiveACK2
   \   000044   90....       MOV     DPTR,#(Audio_ReceiveACK2 & 0xffff)
   \   000047   74..         MOV     A,#((Audio_ReceiveACK2 >> 16) & 0xff)
   \   000049   12....       LCALL   ?BCALL               ; Banked call to: DPTR()
   2103              }
   \   00004C   90....       MOV     DPTR,#__Constant_1
   \   00004F   78..         MOV     R0,#?V0 + 4
   \   000051   12....       LCALL   ?L_ADD_C
   \   000054   90....       MOV     DPTR,#__Constant_4ec
   \   000057   78..         MOV     R0,#?V0 + 0
   \   000059   12....       LCALL   ?L_MOV_C
   \   00005C   78..         MOV     R0,#?V0 + 0
   \   00005E   79..         MOV     R1,#?V0 + 4
   \   000060   12....       LCALL   ?UL_GT
   \   000063   40C2         JC      ??AudioData_Init2_0
   2104          #endif    
   2105              //发送停止信号 
   2106              Audio_I2C_Stop2();     // Stop and return    
   \   000065                ; Setup parameters for call to function Audio_I2C_Stop2
   \   000065   90....       MOV     DPTR,#(Audio_I2C_Stop2 & 0xffff)
   \   000068   74..         MOV     A,#((Audio_I2C_Stop2 >> 16) & 0xff)
   \   00006A   12....       LCALL   ?BCALL               ; Banked call to: DPTR()
   2107          }
   \   00006D   7F08         MOV     R7,#0x8
   \   00006F   02....       LJMP    ?BANKED_LEAVE_SP
   2108          
   2109          #pragma location="DSP_IIC_API1"

   \                                 In segment DSP_IIC_API1, align 1, keep-with-next
   2110          void Maxiiaudio_I2C_writeCode0(u8 I2CAddr, u32 len, u8 *Maxxdata)	//const 
   \                     Maxiiaudio_I2C_writeCode0:
   2111          {
   \   000000   740C         MOV     A,#0xc
   \   000002   12....       LCALL   ?FUNC_ENTER_SP
   \   000005                ; Saved register size: 15
   \   000005                ; Auto size: 0
   \   000005   89..         MOV     ?V0 + 0,R1
   \   000007   8A..         MOV     ?V0 + 4,R2
   \   000009   8B..         MOV     ?V0 + 5,R3
   \   00000B   8C..         MOV     ?V0 + 6,R4
   \   00000D   8D..         MOV     ?V0 + 7,R5
   \   00000F   7582EB       MOV     DPL,#-0x15
   \   000012   7583FF       MOV     DPH,#-0x1
   \   000015   12....       LCALL   ?EXT_STACK_DISP0_16
   \   000018   E0           MOVX    A,@DPTR
   \   000019   F8           MOV     R0,A
   \   00001A   A3           INC     DPTR
   \   00001B   E0           MOVX    A,@DPTR
   \   00001C   F9           MOV     R1,A
   \   00001D   E8           MOV     A,R0
   \   00001E   FE           MOV     R6,A
   \   00001F   E9           MOV     A,R1
   \   000020   FF           MOV     R7,A
   2112              u32 i;
   2113          	Audio_I2C_Start();                //IIC启动
   \   000021                ; Setup parameters for call to function Audio_I2C_Start
   \   000021   90....       MOV     DPTR,#(Audio_I2C_Start & 0xffff)
   \   000024   74..         MOV     A,#((Audio_I2C_Start >> 16) & 0xff)
   \   000026   12....       LCALL   ?BCALL               ; Banked call to: DPTR()
   2114          	Audio_I2C_SendByte(I2CAddr);        //写命令
   \   000029                ; Setup parameters for call to function Audio_I2C_SendByte
   \   000029   A9..         MOV     R1,?V0 + 0
   \   00002B   90....       MOV     DPTR,#(Audio_I2C_SendByte & 0xffff)
   \   00002E   74..         MOV     A,#((Audio_I2C_SendByte >> 16) & 0xff)
   \   000030   12....       LCALL   ?BCALL               ; Banked call to: DPTR()
   2115          	Audio_ReceiveACK();
   \   000033                ; Setup parameters for call to function Audio_ReceiveACK
   \   000033   90....       MOV     DPTR,#(Audio_ReceiveACK & 0xffff)
   \   000036   74..         MOV     A,#((Audio_ReceiveACK >> 16) & 0xff)
   \   000038   12....       LCALL   ?BCALL               ; Banked call to: DPTR()
   2116          	for(i=0;i<len;i++)
   \   00003B   90....       MOV     DPTR,#__Constant_0
   \   00003E   78..         MOV     R0,#?V0 + 8
   \   000040   12....       LCALL   ?L_MOV_C
   \   000043   802A         SJMP    ??Maxiiaudio_I2C_writeCode0_0
   2117          	{
   2118          	    Audio_I2C_SendByte(Maxxdata[i]);  //写数据    ////先写权小的字节
   \                     ??Maxiiaudio_I2C_writeCode0_1:
   \   000045                ; Setup parameters for call to function Audio_I2C_SendByte
   \   000045   85....       MOV     ?V0 + 0,?V0 + 8
   \   000048   85....       MOV     ?V0 + 1,?V0 + 9
   \   00004B   EE           MOV     A,R6
   \   00004C   25..         ADD     A,?V0 + 0
   \   00004E   F582         MOV     DPL,A
   \   000050   EF           MOV     A,R7
   \   000051   35..         ADDC    A,?V0 + 1
   \   000053   F583         MOV     DPH,A
   \   000055   E0           MOVX    A,@DPTR
   \   000056   F9           MOV     R1,A
   \   000057   90....       MOV     DPTR,#(Audio_I2C_SendByte & 0xffff)
   \   00005A   74..         MOV     A,#((Audio_I2C_SendByte >> 16) & 0xff)
   \   00005C   12....       LCALL   ?BCALL               ; Banked call to: DPTR()
   2119                  Audio_ReceiveACK();
   \   00005F                ; Setup parameters for call to function Audio_ReceiveACK
   \   00005F   90....       MOV     DPTR,#(Audio_ReceiveACK & 0xffff)
   \   000062   74..         MOV     A,#((Audio_ReceiveACK >> 16) & 0xff)
   \   000064   12....       LCALL   ?BCALL               ; Banked call to: DPTR()
   2120          	}
   \   000067   90....       MOV     DPTR,#__Constant_1
   \   00006A   78..         MOV     R0,#?V0 + 8
   \   00006C   12....       LCALL   ?L_ADD_C
   \                     ??Maxiiaudio_I2C_writeCode0_0:
   \   00006F   78..         MOV     R0,#?V0 + 4
   \   000071   79..         MOV     R1,#?V0 + 8
   \   000073   12....       LCALL   ?UL_GT
   \   000076   40CD         JC      ??Maxiiaudio_I2C_writeCode0_1
   2121          	Audio_I2C_Stop();     //IIC停止时序
   \   000078                ; Setup parameters for call to function Audio_I2C_Stop
   \   000078   90....       MOV     DPTR,#(Audio_I2C_Stop & 0xffff)
   \   00007B   74..         MOV     A,#((Audio_I2C_Stop >> 16) & 0xff)
   \   00007D   12....       LCALL   ?BCALL               ; Banked call to: DPTR()
   2122          } 
   \   000080   7F0C         MOV     R7,#0xc
   \   000082   02....       LJMP    ?BANKED_LEAVE_SP
   2123          #if 0
   2124          #pragma location="DSP_IIC_API1"
   2125          void Audio_Software_Reset(void)
   2126          {
   2127              u32 i;
   2128              //发起始信号
   2129              Audio_I2C_Start();   
   2130              //写从地址
   2131              Audio_I2C_SendByte(MaxxDSPADDERSS);
   2132              Audio_ReceiveACK();
   2133              // 写数据   
   2134              for( i = 0 ;i< sizeof(g_abMaxxDSP_Reset);i++)
   2135              {
   2136                  Audio_I2C_SendByte(g_abMaxxDSP_Reset[i]);
   2137                  Audio_ReceiveACK();
   2138              }   
   2139              //发送停止信号 
   2140              Audio_I2C_Stop();     // Stop and return
   2141          }
   2142          #endif
   2143          #pragma location="DSP_IIC_API1"

   \                                 In segment DSP_IIC_API1, align 1, keep-with-next
   2144          void AudioData_Init0(void)
   \                     AudioData_Init0:
   2145          {
   \   000000   7408         MOV     A,#0x8
   \   000002   12....       LCALL   ?FUNC_ENTER_SP
   \   000005                ; Saved register size: 11
   \   000005                ; Auto size: 0
   2146              u32 i;
   2147              //发起始信号
   2148              Audio_I2C_Start();   
   \   000005                ; Setup parameters for call to function Audio_I2C_Start
   \   000005   90....       MOV     DPTR,#(Audio_I2C_Start & 0xffff)
   \   000008   74..         MOV     A,#((Audio_I2C_Start >> 16) & 0xff)
   \   00000A   12....       LCALL   ?BCALL               ; Banked call to: DPTR()
   2149              //写从地址
   2150              Audio_I2C_SendByte(MaxxDSPADDERSS);
   \   00000D                ; Setup parameters for call to function Audio_I2C_SendByte
   \   00000D   79E6         MOV     R1,#-0x1a
   \   00000F   90....       MOV     DPTR,#(Audio_I2C_SendByte & 0xffff)
   \   000012   74..         MOV     A,#((Audio_I2C_SendByte >> 16) & 0xff)
   \   000014   12....       LCALL   ?BCALL               ; Banked call to: DPTR()
   2151              Audio_ReceiveACK();
   \   000017                ; Setup parameters for call to function Audio_ReceiveACK
   \   000017   90....       MOV     DPTR,#(Audio_ReceiveACK & 0xffff)
   \   00001A   74..         MOV     A,#((Audio_ReceiveACK >> 16) & 0xff)
   \   00001C   12....       LCALL   ?BCALL               ; Banked call to: DPTR()
   2152              // 写数据
   2153          #if 1    
   2154              for( i = 0 ;i< sizeof(g_abMaxxDSPCommands_1);i++)
   \   00001F   90....       MOV     DPTR,#__Constant_0
   \   000022   78..         MOV     R0,#?V0 + 4
   \   000024   12....       LCALL   ?L_MOV_C
   2155              {
   2156                  Audio_I2C_SendByte(g_abMaxxDSPCommands_1[i]);
   \                     ??AudioData_Init0_0:
   \   000027                ; Setup parameters for call to function Audio_I2C_SendByte
   \   000027   85....       MOV     ?V0 + 0,?V0 + 4
   \   00002A   85....       MOV     ?V0 + 1,?V0 + 5
   \   00002D   E5..         MOV     A,?V0 + 0
   \   00002F   24..         ADD     A,#(g_abMaxxDSPCommands_1 & 0xff)
   \   000031   F582         MOV     DPL,A
   \   000033   E5..         MOV     A,?V0 + 1
   \   000035   34..         ADDC    A,#((g_abMaxxDSPCommands_1 >> 8) & 0xff)
   \   000037   F583         MOV     DPH,A
   \   000039   E4           CLR     A
   \   00003A   93           MOVC    A,@A+DPTR
   \   00003B   F9           MOV     R1,A
   \   00003C   90....       MOV     DPTR,#(Audio_I2C_SendByte & 0xffff)
   \   00003F   74..         MOV     A,#((Audio_I2C_SendByte >> 16) & 0xff)
   \   000041   12....       LCALL   ?BCALL               ; Banked call to: DPTR()
   2157                  Audio_ReceiveACK();
   \   000044                ; Setup parameters for call to function Audio_ReceiveACK
   \   000044   90....       MOV     DPTR,#(Audio_ReceiveACK & 0xffff)
   \   000047   74..         MOV     A,#((Audio_ReceiveACK >> 16) & 0xff)
   \   000049   12....       LCALL   ?BCALL               ; Banked call to: DPTR()
   2158              }
   \   00004C   90....       MOV     DPTR,#__Constant_1
   \   00004F   78..         MOV     R0,#?V0 + 4
   \   000051   12....       LCALL   ?L_ADD_C
   \   000054   90....       MOV     DPTR,#__Constant_14d
   \   000057   78..         MOV     R0,#?V0 + 0
   \   000059   12....       LCALL   ?L_MOV_C
   \   00005C   78..         MOV     R0,#?V0 + 0
   \   00005E   79..         MOV     R1,#?V0 + 4
   \   000060   12....       LCALL   ?UL_GT
   \   000063   40C2         JC      ??AudioData_Init0_0
   2159          #endif    
   2160              //发送停止信号 
   2161              Audio_I2C_Stop();     // Stop and return
   \   000065                ; Setup parameters for call to function Audio_I2C_Stop
   \   000065                REQUIRE ?Subroutine19
   \   000065                ; // Fall through to label ?Subroutine19
   2162          }

   \                                 In segment DSP_IIC_API1, align 1, keep-with-next
   \                     ?Subroutine19:
   \   000000   90....       MOV     DPTR,#(Audio_I2C_Stop & 0xffff)
   \   000003   74..         MOV     A,#((Audio_I2C_Stop >> 16) & 0xff)
   \   000005   12....       LCALL   ?BCALL               ; Banked call to: DPTR()
   \                     ??Subroutine19_0:
   \   000008   7F08         MOV     R7,#0x8
   \   00000A   02....       LJMP    ?BANKED_LEAVE_SP
   2163          
   2164          #pragma location="DSP_IIC_API1"

   \                                 In segment DSP_IIC_API1, align 1, keep-with-next
   2165          void AudioCodec_MUTE(U8 Mute_Status)
   \                     AudioCodec_MUTE:
   2166          {
   \   000000   7404         MOV     A,#0x4
   \   000002   12....       LCALL   ?FUNC_ENTER_SP
   \   000005                ; Saved register size: 7
   \   000005                ; Auto size: 3
   \   000005   C0E0         PUSH    A
   \   000007   C0E0         PUSH    A
   \   000009   C0E0         PUSH    A
   2167              u8 i;
   2168              u8 MaxxDSPTXBug[3];
   2169              if(Mute_Status)
   \   00000B   E9           MOV     A,R1
   \   00000C   6023         JZ      ??AudioCodec_MUTE_0
   2170              {
   2171                  MaxxDSPTXBug[0] = 0x00; 
   \   00000E   E4           CLR     A
   \   00000F   C0E0         PUSH    A
   \   000011   7582FB       MOV     DPL,#-0x5
   \   000014   7583FF       MOV     DPH,#-0x1
   \   000017   12....       LCALL   ?EXT_STACK_DISP0_16
   \   00001A   D0E0         POP     A
   \   00001C   F0           MOVX    @DPTR,A
   2172                  MaxxDSPTXBug[1] = 0xc7;
   \   00001D   74C7         MOV     A,#-0x39
   \   00001F   C0E0         PUSH    A
   \   000021   7582FC       MOV     DPL,#-0x4
   \   000024   7583FF       MOV     DPH,#-0x1
   \   000027   12....       LCALL   ?EXT_STACK_DISP0_16
   \   00002A   D0E0         POP     A
   \   00002C   F0           MOVX    @DPTR,A
   2173                  MaxxDSPTXBug[2] = Mute_Status;
   \   00002D   E9           MOV     A,R1
   \   00002E   02....       LJMP    ??AudioCodec_MUTE_1
   2174                  Maxiiaudio_I2C_writeCode0(MaxxDSPADDERSS,3,MaxxDSPTXBug);
   2175              }
   2176              else 
   2177              {
   2178          
   2179          #if 1    
   2180                  if(((!sys_ctl.mode_switch_flag)||(task_ctl.work_sta ==TASK_MUSIC))&&(!sys_ctl.voice_play_flag))
   \                     ??AudioCodec_MUTE_0:
   \   000031   90....       MOV     DPTR,#(sys_ctl + 61)
   \   000034   E0           MOVX    A,@DPTR
   \   000035   600B         JZ      ??AudioCodec_MUTE_2
   \   000037   90....       MOV     DPTR,#task_ctl
   \   00003A   E0           MOVX    A,@DPTR
   \   00003B   6405         XRL     A,#0x5
   \   00003D   6003         JZ      $+5
   \   00003F   02....       LJMP    ??AudioCodec_MUTE_3 & 0xFFFF
   \                     ??AudioCodec_MUTE_2:
   \   000042   90....       MOV     DPTR,#(sys_ctl + 26)
   \   000045   E0           MOVX    A,@DPTR
   \   000046   6003         JZ      $+5
   \   000048   02....       LJMP    ??AudioCodec_MUTE_3 & 0xFFFF
   2181                  {
   2182                      //if((!Mute_Status)&&(sys_ctl.main_vol > 5))
   2183                      Set_AudioCodec_Volume(0);
   \   00004B                ; Setup parameters for call to function Set_AudioCodec_Volume
   \   00004B   7900         MOV     R1,#0x0
   \   00004D   90....       MOV     DPTR,#(Set_AudioCodec_Volume & 0xffff)
   \   000050   74..         MOV     A,#((Set_AudioCodec_Volume >> 16) & 0xff)
   \   000052   12....       LCALL   ?BCALL               ; Banked call to: DPTR()
   2184                      delay_5ms(6);
   \   000055                ; Setup parameters for call to function delay_5ms
   \   000055   7906         MOV     R1,#0x6
   \   000057   12....       LCALL   delay_5ms & 0xFFFF
   2185                      MaxxDSPTXBug[0] = 0x00; 
   \   00005A   E4           CLR     A
   \   00005B   C0E0         PUSH    A
   \   00005D   7582FB       MOV     DPL,#-0x5
   \   000060   7583FF       MOV     DPH,#-0x1
   \   000063   12....       LCALL   ?EXT_STACK_DISP0_16
   \   000066   D0E0         POP     A
   \   000068   F0           MOVX    @DPTR,A
   2186                      MaxxDSPTXBug[1] = 0xc7;
   \   000069   74C7         MOV     A,#-0x39
   \   00006B   C0E0         PUSH    A
   \   00006D   7582FC       MOV     DPL,#-0x4
   \   000070   7583FF       MOV     DPH,#-0x1
   \   000073   12....       LCALL   ?EXT_STACK_DISP0_16
   \   000076   D0E0         POP     A
   \   000078   F0           MOVX    @DPTR,A
   2187                      MaxxDSPTXBug[2] = Mute_Status;
   \   000079   E4           CLR     A
   \   00007A   C0E0         PUSH    A
   \   00007C   7582FD       MOV     DPL,#-0x3
   \   00007F   7583FF       MOV     DPH,#-0x1
   \   000082   12....       LCALL   ?EXT_STACK_DISP0_16
   \   000085   D0E0         POP     A
   \   000087   12....       LCALL   ?Subroutine2
   2188                      Maxiiaudio_I2C_writeCode0(MaxxDSPADDERSS,3,MaxxDSPTXBug);
   \                     ??CrossCallReturnLabel_3:
   \   00008A   12....       LCALL   ?EXT_STACK_DISP0_16
   \   00008D   C082         PUSH    DPL
   \   00008F   C083         PUSH    DPH
   \   000091   90....       MOV     DPTR,#__Constant_3
   \   000094   78..         MOV     R0,#?V0 + 0
   \   000096   12....       LCALL   ?L_MOV_C
   \   000099   AA..         MOV     R2,?V0 + 0
   \   00009B   AB..         MOV     R3,?V0 + 1
   \   00009D   AC..         MOV     R4,?V0 + 2
   \   00009F   AD..         MOV     R5,?V0 + 3
   \   0000A1   79E6         MOV     R1,#-0x1a
   \   0000A3   90....       MOV     DPTR,#(Maxiiaudio_I2C_writeCode0 & 0xffff)
   \   0000A6   74..         MOV     A,#((Maxiiaudio_I2C_writeCode0 >> 16) & 0xff)
   \   0000A8   12....       LCALL   ?BCALL               ; Banked call to: DPTR()
   \   0000AB   D0E0         POP     A
   \   0000AD   D0E0         POP     A
   2189                      for(i = 0;i < sys_ctl.main_vol;i++)
   \                     ??AudioCodec_MUTE_4:
   \   0000AF   8E..         MOV     ?V0 + 0,R6
   \   0000B1   90....       MOV     DPTR,#(sys_ctl + 65)
   \   0000B4   E0           MOVX    A,@DPTR
   \   0000B5   F8           MOV     R0,A
   \   0000B6   33           RLC     A
   \   0000B7   95E0         SUBB    A,0xE0 /* A   */
   \   0000B9   F9           MOV     R1,A
   \   0000BA   C3           CLR     C
   \   0000BB   E5..         MOV     A,?V0 + 0
   \   0000BD   98           SUBB    A,R0
   \   0000BE   E4           CLR     A
   \   0000BF   99           SUBB    A,R1
   \   0000C0   A2D2         MOV     C,0xD0 /* PSW */.2
   \   0000C2   65D0         XRL     A,PSW
   \   0000C4   33           RLC     A
   \   0000C5   5067         JNC     ??AudioCodec_MUTE_5
   2190                      {  
   2191                          Set_AudioCodec_Volume(i);
   \   0000C7                ; Setup parameters for call to function Set_AudioCodec_Volume
   \   0000C7   EE           MOV     A,R6
   \   0000C8   F9           MOV     R1,A
   \   0000C9   90....       MOV     DPTR,#(Set_AudioCodec_Volume & 0xffff)
   \   0000CC   74..         MOV     A,#((Set_AudioCodec_Volume >> 16) & 0xff)
   \   0000CE   12....       LCALL   ?BCALL               ; Banked call to: DPTR()
   2192                          delay_5ms(6);
   \   0000D1                ; Setup parameters for call to function delay_5ms
   \   0000D1   7906         MOV     R1,#0x6
   \   0000D3   12....       LCALL   delay_5ms & 0xFFFF
   2193                          //if(task_ctl.work_sta ==TASK_BT)delay_5ms(1);
   2194                          //else delay_5ms(6);
   2195                      }             
   \   0000D6   0E           INC     R6
   \   0000D7   80D6         SJMP    ??AudioCodec_MUTE_4
   2196                  } 
   2197                  else 
   2198                  {
   2199                      MaxxDSPTXBug[0] = 0x00; 
   \                     ??AudioCodec_MUTE_3:
   \   0000D9   E4           CLR     A
   \   0000DA   C0E0         PUSH    A
   \   0000DC   7582FB       MOV     DPL,#-0x5
   \   0000DF   7583FF       MOV     DPH,#-0x1
   \   0000E2   12....       LCALL   ?EXT_STACK_DISP0_16
   \   0000E5   D0E0         POP     A
   \   0000E7   F0           MOVX    @DPTR,A
   2200                      MaxxDSPTXBug[1] = 0xc7;
   \   0000E8   74C7         MOV     A,#-0x39
   \   0000EA   C0E0         PUSH    A
   \   0000EC   7582FC       MOV     DPL,#-0x4
   \   0000EF   7583FF       MOV     DPH,#-0x1
   \   0000F2   12....       LCALL   ?EXT_STACK_DISP0_16
   \   0000F5   D0E0         POP     A
   \   0000F7   F0           MOVX    @DPTR,A
   2201                      MaxxDSPTXBug[2] = Mute_Status;
   \   0000F8   E4           CLR     A
   \                     ??AudioCodec_MUTE_1:
   \   0000F9   C0E0         PUSH    A
   \   0000FB   7582FD       MOV     DPL,#-0x3
   \   0000FE   7583FF       MOV     DPH,#-0x1
   \   000101   12....       LCALL   ?EXT_STACK_DISP0_16
   \   000104   D0E0         POP     A
   \   000106   12....       LCALL   ?Subroutine2
   2202                      Maxiiaudio_I2C_writeCode0(MaxxDSPADDERSS,3,MaxxDSPTXBug);
   \                     ??CrossCallReturnLabel_4:
   \   000109   12....       LCALL   ?EXT_STACK_DISP0_16
   \   00010C   C082         PUSH    DPL
   \   00010E   C083         PUSH    DPH
   \   000110   90....       MOV     DPTR,#__Constant_3
   \   000113   78..         MOV     R0,#?V0 + 0
   \   000115   12....       LCALL   ?L_MOV_C
   \   000118   AA..         MOV     R2,?V0 + 0
   \   00011A   AB..         MOV     R3,?V0 + 1
   \   00011C   AC..         MOV     R4,?V0 + 2
   \   00011E   AD..         MOV     R5,?V0 + 3
   \   000120   79E6         MOV     R1,#-0x1a
   \   000122   90....       MOV     DPTR,#(Maxiiaudio_I2C_writeCode0 & 0xffff)
   \   000125   74..         MOV     A,#((Maxiiaudio_I2C_writeCode0 >> 16) & 0xff)
   \   000127   12....       LCALL   ?BCALL               ; Banked call to: DPTR()
   \   00012A   D0E0         POP     A
   \   00012C   D0E0         POP     A
   2203                  } 
   2204          #endif        
   2205              }      
   2206          }
   \                     ??AudioCodec_MUTE_5:
   \   00012E   D0E0         POP     A
   \   000130   D0E0         POP     A
   \   000132   D0E0         POP     A
   \   000134   7F04         MOV     R7,#0x4
   \   000136   02....       LJMP    ?BANKED_LEAVE_SP

   \                                 In segment DSP_IIC_API1, align 1, keep-with-next
   \                     ?Subroutine2:
   \   000000   F0           MOVX    @DPTR,A
   \   000001                ; Setup parameters for call to function Maxiiaudio_I2C_writeCode0
   \   000001                ; Setup parameters for call to function Maxiiaudio_I2C_writeCode0
   \   000001                ; Setup parameters for call to function Maxiiaudio_I2C_writeCode0
   \   000001                ; Setup parameters for call to function Maxiiaudio_I2C_writeCode0
   \   000001   7582FC       MOV     DPL,#-0x4
   \   000004   7583FF       MOV     DPH,#-0x1
   \   000007   22           RET
   2207          
   2208          
   2209          
   2210          #pragma location="DSP_IIC_API1"

   \                                 In segment DSP_IIC_API1, align 1, keep-with-next
   2211          void Audio_Slow_Volume(U8 Mute_Status)
   \                     Audio_Slow_Volume:
   2212          {
   \   000000   7402         MOV     A,#0x2
   \   000002   12....       LCALL   ?FUNC_ENTER_SP
   \   000005                ; Saved register size: 5
   \   000005                ; Auto size: 0
   2213              u8 i,Temp_volume;
   2214              if(Mute_Status)
   \   000005   E9           MOV     A,R1
   \   000006   601D         JZ      ??Audio_Slow_Volume_0
   2215              {
   2216                  Temp_volume = sys_ctl.main_vol;
   \   000008   90....       MOV     DPTR,#(sys_ctl + 65)
   \   00000B   E0           MOVX    A,@DPTR
   \   00000C   FF           MOV     R7,A
   2217                  for(i = 0;i <= sys_ctl.main_vol;i++)
   \                     ??Audio_Slow_Volume_1:
   \   00000D   12....       LCALL   ?Subroutine1
   \                     ??CrossCallReturnLabel_40:
   \   000010   402D         JC      ??Audio_Slow_Volume_2
   2218                  {           
   2219                      Set_AudioCodec_Volume(Temp_volume);
   \   000012                ; Setup parameters for call to function Set_AudioCodec_Volume
   \   000012   EF           MOV     A,R7
   \   000013   F9           MOV     R1,A
   \   000014   90....       MOV     DPTR,#(Set_AudioCodec_Volume & 0xffff)
   \   000017   74..         MOV     A,#((Set_AudioCodec_Volume >> 16) & 0xff)
   \   000019   12....       LCALL   ?BCALL               ; Banked call to: DPTR()
   2220                      delay_5ms(6);
   \   00001C                ; Setup parameters for call to function delay_5ms
   \   00001C   7906         MOV     R1,#0x6
   \   00001E   12....       LCALL   delay_5ms & 0xFFFF
   2221                      Temp_volume--;
   \   000021   1F           DEC     R7
   2222                  }
   \   000022   0E           INC     R6
   \   000023   80E8         SJMP    ??Audio_Slow_Volume_1
   2223              }
   2224              else
   2225              {
   2226                  Temp_volume = 0;
   \                     ??Audio_Slow_Volume_0:
   \   000025   7F00         MOV     R7,#0x0
   2227                  for(i = 0;i <= sys_ctl.main_vol;i++)
   \   000027   8011         SJMP    ??Audio_Slow_Volume_3
   2228                  {            
   2229                      Set_AudioCodec_Volume(Temp_volume);
   \                     ??Audio_Slow_Volume_4:
   \   000029                ; Setup parameters for call to function Set_AudioCodec_Volume
   \   000029   EF           MOV     A,R7
   \   00002A   F9           MOV     R1,A
   \   00002B   90....       MOV     DPTR,#(Set_AudioCodec_Volume & 0xffff)
   \   00002E   74..         MOV     A,#((Set_AudioCodec_Volume >> 16) & 0xff)
   \   000030   12....       LCALL   ?BCALL               ; Banked call to: DPTR()
   2230                      delay_5ms(6);
   \   000033                ; Setup parameters for call to function delay_5ms
   \   000033   7906         MOV     R1,#0x6
   \   000035   12....       LCALL   delay_5ms & 0xFFFF
   2231                      Temp_volume++;
   \   000038   0F           INC     R7
   2232                  }
   \   000039   0E           INC     R6
   \                     ??Audio_Slow_Volume_3:
   \   00003A   12....       LCALL   ?Subroutine1
   \                     ??CrossCallReturnLabel_41:
   \   00003D   50EA         JNC     ??Audio_Slow_Volume_4
   2233              } 
   2234          }
   \                     ??Audio_Slow_Volume_2:
   \   00003F   7F02         MOV     R7,#0x2
   \   000041   02....       LJMP    ?BANKED_LEAVE_SP

   \                                 In segment DSP_IIC_API1, align 1, keep-with-next
   \                     ?Subroutine1:
   \   000000   90....       MOV     DPTR,#(sys_ctl + 65)
   \   000003   E0           MOVX    A,@DPTR
   \   000004   F8           MOV     R0,A
   \   000005   33           RLC     A
   \   000006   95E0         SUBB    A,0xE0 /* A   */
   \   000008   F9           MOV     R1,A
   \   000009   8E..         MOV     ?V0 + 0,R6
   \   00000B   C3           CLR     C
   \   00000C   E8           MOV     A,R0
   \   00000D   95..         SUBB    A,?V0 + 0
   \   00000F   E9           MOV     A,R1
   \   000010   9400         SUBB    A,#0x0
   \   000012   02....       LJMP    ?Subroutine18

   \                                 In segment DSP_IIC_API1, align 1, keep-with-next
   \                     ?Subroutine18:
   \   000000   A2D2         MOV     C,0xD0 /* PSW */.2
   \   000002   65D0         XRL     A,PSW
   \   000004   33           RLC     A
   \   000005   22           RET
   2235           
   2236          #pragma location="DSP_IIC_API1"

   \                                 In segment DSP_IIC_API1, align 1, keep-with-next
   2237          void set_AudioDAC_VOL(u32 volume)
   \                     set_AudioDAC_VOL:
   2238          {
   \   000000   7408         MOV     A,#0x8
   \   000002   12....       LCALL   ?FUNC_ENTER_SP
   \   000005                ; Saved register size: 11
   \   000005                ; Auto size: 3
   \   000005   C0E0         PUSH    A
   \   000007   C0E0         PUSH    A
   \   000009   C0E0         PUSH    A
   \   00000B   8A..         MOV     ?V0 + 4,R2
   2239              u8 MaxxDSPTXBug[3];
   2240          #if 0    
   2241              MaxxDSPTXBug[0] = (u8)(volume >> 16);
   2242              MaxxDSPTXBug[1] = (u8)(volume >> 8);
   2243              MaxxDSPTXBug[2] = (u8)(volume & 0xff);
   2244          #endif   
   2245              MaxxDSPTXBug[0] = (u8)(volume >> 16);
   \   00000D   8A..         MOV     ?V0 + 0,R2
   \   00000F   8B..         MOV     ?V0 + 1,R3
   \   000011   8C..         MOV     ?V0 + 2,R4
   \   000013   8D..         MOV     ?V0 + 3,R5
   \   000015   7410         MOV     A,#0x10
   \   000017   78..         MOV     R0,#?V0 + 0
   \   000019   12....       LCALL   ?UL_SHR
   \   00001C   C0..         PUSH    ?V0 + 0
   \   00001E   7582FB       MOV     DPL,#-0x5
   \   000021   7583FF       MOV     DPH,#-0x1
   \   000024   12....       LCALL   ?EXT_STACK_DISP0_16
   \   000027   D0E0         POP     A
   \   000029   F0           MOVX    @DPTR,A
   2246              MaxxDSPTXBug[1] = (u8)(volume >> 8);
   \   00002A   EB           MOV     A,R3
   \   00002B   F5..         MOV     ?V0 + 0,A
   \   00002D   C0..         PUSH    ?V0 + 0
   \   00002F   7582FC       MOV     DPL,#-0x4
   \   000032   7583FF       MOV     DPH,#-0x1
   \   000035   12....       LCALL   ?EXT_STACK_DISP0_16
   \   000038   D0E0         POP     A
   \   00003A   F0           MOVX    @DPTR,A
   2247              MaxxDSPTXBug[2] = (u8)(volume & 0xff);
   \   00003B   C0..         PUSH    ?V0 + 4
   \   00003D   7582FD       MOV     DPL,#-0x3
   \   000040   7583FF       MOV     DPH,#-0x1
   \   000043   12....       LCALL   ?EXT_STACK_DISP0_16
   \   000046   D0E0         POP     A
   \   000048   12....       LCALL   ?Subroutine2
   2248          
   2249              Maxiiaudio_I2C_writeCode0(MaxxDSPADDERSS,3,MaxxDSPTXBug);
   \                     ??CrossCallReturnLabel_5:
   \   00004B   12....       LCALL   ?EXT_STACK_DISP0_16
   \   00004E   C082         PUSH    DPL
   \   000050   C083         PUSH    DPH
   \   000052   90....       MOV     DPTR,#__Constant_3
   \   000055   78..         MOV     R0,#?V0 + 0
   \   000057   12....       LCALL   ?L_MOV_C
   \   00005A   AA..         MOV     R2,?V0 + 0
   \   00005C   AB..         MOV     R3,?V0 + 1
   \   00005E   AC..         MOV     R4,?V0 + 2
   \   000060   AD..         MOV     R5,?V0 + 3
   \   000062   79E6         MOV     R1,#-0x1a
   \   000064   90....       MOV     DPTR,#(Maxiiaudio_I2C_writeCode0 & 0xffff)
   \   000067   74..         MOV     A,#((Maxiiaudio_I2C_writeCode0 >> 16) & 0xff)
   \   000069   12....       LCALL   ?BCALL               ; Banked call to: DPTR()
   \   00006C   D0E0         POP     A
   \   00006E   D0E0         POP     A
   2250          }
   \   000070   D0E0         POP     A
   \   000072   D0E0         POP     A
   \   000074   D0E0         POP     A
   \   000076   02....       LJMP    ??Subroutine19_0
   2251          #if 0
   2252          #pragma location="CS2313_CODE_API"
   2253          void Set_AudioCodec_Volume(u8 Vol_tyle,BOOL Up_Down)	  
   2254          {	
   2255              switch(Vol_tyle)
   2256              {
   2257                  case STATE_TREBLE:
   2258                      break;
   2259                      
   2260                  case STATE_BASS:
   2261                      break;
   2262                      
   2263                  default:
   2264                      break;
   2265              }
   2266          #if 0
   2267              u32 CurrVol;
   2268              u16 MainVolumeValue;
   2269              MainVolumeValue=Audio_VolumeData[volume];
   2270              if(MainVolumeValue > 0xFF)
   2271              {
   2272                  MainVolumeValue = MainVolumeValue&0xFF;
   2273                  CurrVol = 0x01D000 | MainVolumeValue;
   2274              }
   2275              else
   2276                  CurrVol = 0x00D000 | MainVolumeValue;
   2277              set_AudioDAC_VOL(CurrVol);
   2278          #endif
   2279          }
   2280          #endif
   2281          #if 0
   2282          #pragma location="DSP_IIC_API1"
   2283          void Set_AudioCodec_Volume(u8 volume)	  
   2284          {	
   2285              u32 CurrVol;
   2286              u16 MainVolumeValue;
   2287              MainVolumeValue=Audio_VolumeData[volume];  
   2288              if(MainVolumeValue > 0xFF)
   2289              {
   2290                  MainVolumeValue = MainVolumeValue&0xFF;
   2291                  CurrVol = 0x01D000 | MainVolumeValue;
   2292              }
   2293              else
   2294                  CurrVol = 0x00D000 | MainVolumeValue;
   2295          
   2296              set_AudioDAC_VOL(CurrVol);
   2297          }
   2298          #endif
   2299          #pragma location="DSP_IIC_API1"

   \                                 In segment DSP_IIC_API1, align 1, keep-with-next
   2300          void Set_AudioCodec_Volume(u8 volume)
   \                     Set_AudioCodec_Volume:
   2301          { 
   \   000000   7408         MOV     A,#0x8
   \   000002   12....       LCALL   ?FUNC_ENTER_SP
   \   000005                ; Saved register size: 11
   \   000005                ; Auto size: 0
   \   000005   89..         MOV     ?V0 + 0,R1
   2302              u8 i;
   2303              set_AudioDAC_VOL(0x00A411);
   \   000007                ; Setup parameters for call to function set_AudioDAC_VOL
   \   000007   90....       MOV     DPTR,#__Constant_a411
   \   00000A   78..         MOV     R0,#?V0 + 4
   \   00000C   12....       LCALL   ?L_MOV_C
   \   00000F   AA..         MOV     R2,?V0 + 4
   \   000011   AB..         MOV     R3,?V0 + 5
   \   000013   AC..         MOV     R4,?V0 + 6
   \   000015   AD..         MOV     R5,?V0 + 7
   \   000017   90....       MOV     DPTR,#(set_AudioDAC_VOL & 0xffff)
   \   00001A   74..         MOV     A,#((set_AudioDAC_VOL >> 16) & 0xff)
   \   00001C   12....       LCALL   ?BCALL               ; Banked call to: DPTR()
   2304              set_AudioDAC_VOL(Audio_VolumeData[volume]);
   \   00001F                ; Setup parameters for call to function set_AudioDAC_VOL
   \   00001F   8E..         MOV     ?V0 + 1,R6
   \   000021   7402         MOV     A,#0x2
   \   000023   78..         MOV     R0,#?V0 + 0
   \   000025   12....       LCALL   ?S_SHL
   \   000028   E5..         MOV     A,?V0 + 0
   \   00002A   24..         ADD     A,#(Audio_VolumeData & 0xff)
   \   00002C   F582         MOV     DPL,A
   \   00002E   E5..         MOV     A,?V0 + 1
   \   000030   34..         ADDC    A,#((Audio_VolumeData >> 8) & 0xff)
   \   000032   F583         MOV     DPH,A
   \   000034   78..         MOV     R0,#?V0 + 0
   \   000036   12....       LCALL   ?L_MOV_C
   \   000039   AA..         MOV     R2,?V0 + 0
   \   00003B   AB..         MOV     R3,?V0 + 1
   \   00003D   AC..         MOV     R4,?V0 + 2
   \   00003F   AD..         MOV     R5,?V0 + 3
   \   000041   90....       MOV     DPTR,#(set_AudioDAC_VOL & 0xffff)
   \   000044   74..         MOV     A,#((set_AudioDAC_VOL >> 16) & 0xff)
   \   000046   12....       LCALL   ?BCALL               ; Banked call to: DPTR()
   2305               //发起始信号
   2306              Audio_I2C_Start();   
   \   000049                ; Setup parameters for call to function Audio_I2C_Start
   \   000049   90....       MOV     DPTR,#(Audio_I2C_Start & 0xffff)
   \   00004C   74..         MOV     A,#((Audio_I2C_Start >> 16) & 0xff)
   \   00004E   12....       LCALL   ?BCALL               ; Banked call to: DPTR()
   2307              //写从地址
   2308              Audio_I2C_SendByte(MaxxDSPADDERSS);
   \   000051                ; Setup parameters for call to function Audio_I2C_SendByte
   \   000051   79E6         MOV     R1,#-0x1a
   \   000053   90....       MOV     DPTR,#(Audio_I2C_SendByte & 0xffff)
   \   000056   74..         MOV     A,#((Audio_I2C_SendByte >> 16) & 0xff)
   \   000058   12....       LCALL   ?BCALL               ; Banked call to: DPTR()
   2309              Audio_ReceiveACK();
   \   00005B                ; Setup parameters for call to function Audio_ReceiveACK
   \   00005B   90....       MOV     DPTR,#(Audio_ReceiveACK & 0xffff)
   \   00005E   74..         MOV     A,#((Audio_ReceiveACK >> 16) & 0xff)
   \   000060   12....       LCALL   ?BCALL               ; Banked call to: DPTR()
   2310              for( i = 0 ;i< sizeof(Audio_inputData);i++){
   2311                  Audio_I2C_SendByte(Audio_inputData[i]);
   \                     ??Set_AudioCodec_Volume_0:
   \   000063                ; Setup parameters for call to function Audio_I2C_SendByte
   \   000063   8E..         MOV     ?V0 + 0,R6
   \   000065   E5..         MOV     A,?V0 + 0
   \   000067   24..         ADD     A,#(Audio_inputData & 0xff)
   \   000069   F582         MOV     DPL,A
   \   00006B   E4           CLR     A
   \   00006C   34..         ADDC    A,#((Audio_inputData >> 8) & 0xff)
   \   00006E   F583         MOV     DPH,A
   \   000070   E4           CLR     A
   \   000071   93           MOVC    A,@A+DPTR
   \   000072   F9           MOV     R1,A
   \   000073   90....       MOV     DPTR,#(Audio_I2C_SendByte & 0xffff)
   \   000076   74..         MOV     A,#((Audio_I2C_SendByte >> 16) & 0xff)
   \   000078   12....       LCALL   ?BCALL               ; Banked call to: DPTR()
   2312                  Audio_ReceiveACK();
   \   00007B                ; Setup parameters for call to function Audio_ReceiveACK
   \   00007B   90....       MOV     DPTR,#(Audio_ReceiveACK & 0xffff)
   \   00007E   74..         MOV     A,#((Audio_ReceiveACK >> 16) & 0xff)
   \   000080   12....       LCALL   ?BCALL               ; Banked call to: DPTR()
   2313              }
   \   000083   0E           INC     R6
   \   000084   EE           MOV     A,R6
   \   000085   C3           CLR     C
   \   000086   9433         SUBB    A,#0x33
   \   000088   40D9         JC      ??Set_AudioCodec_Volume_0
   2314              Audio_I2C_Stop();     // Stop and return    
   \   00008A                ; Setup parameters for call to function Audio_I2C_Stop
   \   00008A   02....       LJMP    ?Subroutine19
   2315          }
   2316          
   2317          #if 1
   2318          //	 MaxxBass
   2319          #pragma location="DSP_IIC_API1"

   \                                 In segment DSP_IIC_API1, align 1, keep-with-next
   2320          void Set_AudioCodec_MaxxBass(u8 volume)
   \                     Set_AudioCodec_MaxxBass:
   2321          {	
   \   000000   C0..         PUSH    ?V0 + 0
   \   000002   C0..         PUSH    ?V0 + 1
   \   000004   C0..         PUSH    ?V0 + 2
   \   000006   C0..         PUSH    ?V0 + 3
   \   000008                ; Saved register size: 4
   \   000008                ; Auto size: 3
   \   000008   C0E0         PUSH    A
   \   00000A   C0E0         PUSH    A
   \   00000C   C0E0         PUSH    A
   \   00000E   E9           MOV     A,R1
   \   00000F   FC           MOV     R4,A
   2322              u8 MaxxDSPTXBug[3];
   2323              MaxxDSPTXBug[0] = 0x00; 
   \   000010   E4           CLR     A
   \   000011   C0E0         PUSH    A
   \   000013   7582FB       MOV     DPL,#-0x5
   \   000016   7583FF       MOV     DPH,#-0x1
   \   000019   12....       LCALL   ?EXT_STACK_DISP0_16
   \   00001C   D0E0         POP     A
   \   00001E   F0           MOVX    @DPTR,A
   2324              MaxxDSPTXBug[1] = 0xd1;                               
   \   00001F   74D1         MOV     A,#-0x2f
   \   000021   C0E0         PUSH    A
   \   000023   7582FC       MOV     DPL,#-0x4
   \   000026   7583FF       MOV     DPH,#-0x1
   \   000029   12....       LCALL   ?EXT_STACK_DISP0_16
   \   00002C   D0E0         POP     A
   \   00002E   F0           MOVX    @DPTR,A
   2325              MaxxDSPTXBug[2] = Audio_MaxBassVol_Value-((Audio_MainVolume_Max-volume)*2*((Audio_MainVolume_Max-volume)/15));
   \   00002F   8C..         MOV     ?V0 + 0,R4
   \   000031   7420         MOV     A,#0x20
   \   000033   C3           CLR     C
   \   000034   95..         SUBB    A,?V0 + 0
   \   000036   F8           MOV     R0,A
   \   000037   E4           CLR     A
   \   000038   9400         SUBB    A,#0x0
   \   00003A   F9           MOV     R1,A
   \   00003B   7A0F         MOV     R2,#0xf
   \   00003D   7B00         MOV     R3,#0x0
   \   00003F   12....       LCALL   ?S_DIV_MOD
   \   000042   7420         MOV     A,#0x20
   \   000044   C3           CLR     C
   \   000045   9C           SUBB    A,R4
   \   000046   F5F0         MOV     B,A
   \   000048   E8           MOV     A,R0
   \   000049   A4           MUL     AB
   \   00004A   33           RLC     A
   \   00004B   FA           MOV     R2,A
   \   00004C   747F         MOV     A,#0x7f
   \   00004E   C3           CLR     C
   \   00004F   9A           SUBB    A,R2
   \   000050   C0E0         PUSH    A
   \   000052   7582FD       MOV     DPL,#-0x3
   \   000055   7583FF       MOV     DPH,#-0x1
   \   000058   12....       LCALL   ?EXT_STACK_DISP0_16
   \   00005B   D0E0         POP     A
   \   00005D   12....       LCALL   ?Subroutine2
   2326              Maxiiaudio_I2C_writeCode0(MaxxDSPADDERSS,3,MaxxDSPTXBug);  
   \                     ??CrossCallReturnLabel_6:
   \   000060   12....       LCALL   ?EXT_STACK_DISP0_16
   \   000063   C082         PUSH    DPL
   \   000065   C083         PUSH    DPH
   \   000067   90....       MOV     DPTR,#__Constant_3
   \   00006A   78..         MOV     R0,#?V0 + 0
   \   00006C   12....       LCALL   ?L_MOV_C
   \   00006F   AA..         MOV     R2,?V0 + 0
   \   000071   AB..         MOV     R3,?V0 + 1
   \   000073   AC..         MOV     R4,?V0 + 2
   \   000075   AD..         MOV     R5,?V0 + 3
   \   000077   79E6         MOV     R1,#-0x1a
   \   000079   90....       MOV     DPTR,#(Maxiiaudio_I2C_writeCode0 & 0xffff)
   \   00007C   74..         MOV     A,#((Maxiiaudio_I2C_writeCode0 >> 16) & 0xff)
   \   00007E   12....       LCALL   ?BCALL               ; Banked call to: DPTR()
   \   000081   D0E0         POP     A
   \   000083   D0E0         POP     A
   2327          }
   \   000085   D0E0         POP     A
   \   000087   D0E0         POP     A
   \   000089   D0E0         POP     A
   \   00008B                REQUIRE ?Subroutine15
   \   00008B                ; // Fall through to label ?Subroutine15

   \                                 In segment DSP_IIC_API1, align 1, keep-with-next
   \                     ?Subroutine15:
   \   000000   D0..         POP     ?V0 + 3
   \   000002   D0..         POP     ?V0 + 2
   \   000004   D0..         POP     ?V0 + 1
   \   000006   D0..         POP     ?V0 + 0
   \   000008   02....       LJMP    ?BRET
   2328          #endif
   2329          #if 1
   2330          #pragma location="DSP_IIC_API3"

   \                                 In segment DSP_IIC_API3, align 1, keep-with-next
   2331          void Write_Npcp215_Bass_Treble(s8 vol,bool k)
   \                     Write_Npcp215_Bass_Treble:
   2332          {
   \   000000   7404         MOV     A,#0x4
   \   000002   12....       LCALL   ?FUNC_ENTER_SP
   \   000005                ; Saved register size: 7
   \   000005                ; Auto size: 0
   \   000005   E9           MOV     A,R1
   \   000006   FE           MOV     R6,A
   \   000007   A2F0         MOV     C,B.0
   \   000009   92..         MOV     ?VB.0,C
   2333              u8 i;
   2334              //u8 MaxxDSPTXBug[3];
   2335          	vol=10+vol;
   \   00000B   740A         MOV     A,#0xa
   \   00000D   2E           ADD     A,R6
   \   00000E   FE           MOV     R6,A
   2336          	if(vol <  0) vol =  0;							// negative, set to 0
   \   00000F   C3           CLR     C
   \   000010   9400         SUBB    A,#0x0
   \   000012   A2D2         MOV     C,0xD0 /* PSW */.2
   \   000014   65D0         XRL     A,PSW
   \   000016   33           RLC     A
   \   000017   5004         JNC     ??Write_Npcp215_Bass_Treble_0
   \   000019   7E00         MOV     R6,#0x0
   \   00001B   800D         SJMP    ??Write_Npcp215_Bass_Treble_1
   2337          	if(vol > 20) vol = 20;	
   \                     ??Write_Npcp215_Bass_Treble_0:
   \   00001D   EE           MOV     A,R6
   \   00001E   C3           CLR     C
   \   00001F   9415         SUBB    A,#0x15
   \   000021   A2D2         MOV     C,0xD0 /* PSW */.2
   \   000023   65D0         XRL     A,PSW
   \   000025   33           RLC     A
   \   000026   4002         JC      ??Write_Npcp215_Bass_Treble_1
   \   000028   7E14         MOV     R6,#0x14
   2338               //发起始信号
   2339              Audio_I2C_Start2();   
   \                     ??Write_Npcp215_Bass_Treble_1:
   \   00002A                ; Setup parameters for call to function Audio_I2C_Start2
   \   00002A   90....       MOV     DPTR,#(Audio_I2C_Start2 & 0xffff)
   \   00002D   74..         MOV     A,#((Audio_I2C_Start2 >> 16) & 0xff)
   \   00002F   12....       LCALL   ?BCALL               ; Banked call to: DPTR()
   2340              //写从地址
   2341              Audio_I2C_SendByte2(MaxxDSPADDERSS);
   \   000032                ; Setup parameters for call to function Audio_I2C_SendByte2
   \   000032   79E6         MOV     R1,#-0x1a
   \   000034   90....       MOV     DPTR,#(Audio_I2C_SendByte2 & 0xffff)
   \   000037   74..         MOV     A,#((Audio_I2C_SendByte2 >> 16) & 0xff)
   \   000039   12....       LCALL   ?BCALL               ; Banked call to: DPTR()
   2342              Audio_ReceiveACK2();
   \   00003C                ; Setup parameters for call to function Audio_ReceiveACK2
   \   00003C   90....       MOV     DPTR,#(Audio_ReceiveACK2 & 0xffff)
   \   00003F   74..         MOV     A,#((Audio_ReceiveACK2 >> 16) & 0xff)
   \   000041   12....       LCALL   ?BCALL               ; Banked call to: DPTR()
   2343              // 写数据   
   2344          	if(k)
   \   000044   EE           MOV     A,R6
   \   000045   33           RLC     A
   \   000046   95E0         SUBB    A,0xE0 /* A   */
   \   000048   FF           MOV     R7,A
   \   000049   A2..         MOV     C,?VB.0
   \   00004B   75..00       MOV     ?V0 + 0,#0x0
   \   00004E   5048         JNC     ??Write_Npcp215_Bass_Treble_2
   2345          	{
   2346                  for( i = 0 ;i< sizeof(MaxxDSP_Treble_Commands);i++) //Ch:,3:i == 18 Ch:,4:i == 39 Ch:,5: i == 60
   \   000050   8038         SJMP    ??Write_Npcp215_Bass_Treble_3
   2347                  {       
   2348                      if((i == 17)||(i == 38)||(i == 59)){
   2349                          Audio_I2C_SendByte2(Treble_Bass_TAB[vol]);
   \                     ??Write_Npcp215_Bass_Treble_4:
   \   000052                ; Setup parameters for call to function Audio_I2C_SendByte2
   \   000052   EE           MOV     A,R6
   \   000053   24..         ADD     A,#(Treble_Bass_TAB & 0xff)
   \   000055   F582         MOV     DPL,A
   \   000057   EF           MOV     A,R7
   \   000058   34..         ADDC    A,#((Treble_Bass_TAB >> 8) & 0xff)
   \                     ??Write_Npcp215_Bass_Treble_5:
   \   00005A   F583         MOV     DPH,A
   \   00005C   E4           CLR     A
   \   00005D   93           MOVC    A,@A+DPTR
   \   00005E   F9           MOV     R1,A
   \   00005F   90....       MOV     DPTR,#(Audio_I2C_SendByte2 & 0xffff)
   \   000062   74..         MOV     A,#((Audio_I2C_SendByte2 >> 16) & 0xff)
   \   000064   12....       LCALL   ?BCALL               ; Banked call to: DPTR()
   2350                      }
   2351                      else {
   2352                          Audio_I2C_SendByte2(MaxxDSP_Treble_Commands[i]);
   2353                      }  
   2354                      Audio_ReceiveACK2();
   \   000067                ; Setup parameters for call to function Audio_ReceiveACK2
   \   000067   90....       MOV     DPTR,#(Audio_ReceiveACK2 & 0xffff)
   \   00006A   74..         MOV     A,#((Audio_ReceiveACK2 >> 16) & 0xff)
   \   00006C   12....       LCALL   ?BCALL               ; Banked call to: DPTR()
   \   00006F   05..         INC     ?V0 + 0
   \   000071   E5..         MOV     A,?V0 + 0
   \   000073   C3           CLR     C
   \   000074   943F         SUBB    A,#0x3f
   \   000076   5076         JNC     ??Write_Npcp215_Bass_Treble_6
   \   000078   7411         MOV     A,#0x11
   \   00007A   65..         XRL     A,?V0 + 0
   \   00007C   60D4         JZ      ??Write_Npcp215_Bass_Treble_4
   \   00007E   7426         MOV     A,#0x26
   \   000080   65..         XRL     A,?V0 + 0
   \   000082   60CE         JZ      ??Write_Npcp215_Bass_Treble_4
   \   000084   743B         MOV     A,#0x3b
   \   000086   65..         XRL     A,?V0 + 0
   \   000088   60C8         JZ      ??Write_Npcp215_Bass_Treble_4
   \                     ??Write_Npcp215_Bass_Treble_3:
   \   00008A                ; Setup parameters for call to function Audio_I2C_SendByte2
   \   00008A   85....       MOV     ?V0 + 2,?V0 + 0
   \   00008D   E5..         MOV     A,?V0 + 2
   \   00008F   24..         ADD     A,#(MaxxDSP_Treble_Commands & 0xff)
   \   000091   F582         MOV     DPL,A
   \   000093   E4           CLR     A
   \   000094   34..         ADDC    A,#((MaxxDSP_Treble_Commands >> 8) & 0xff)
   \   000096   80C2         SJMP    ??Write_Npcp215_Bass_Treble_5
   2355                  }
   2356          	}
   2357          	else 
   2358          	{
   2359                  for( i = 0 ;i< sizeof(MaxxDSP_Bass_Commands);i++)//Ch:,1:i == 18 Ch:,2:i == 39 Ch:,3: i == 60
   2360                  {
   2361                      if((i == 17)||(i == 38)||(i == 59)){
   2362                          Audio_I2C_SendByte2(Treble_Bass_TAB[vol]);
   2363                      }
   2364                      else{
   2365                          if(i == 65){
   2366                              Audio_I2C_SendByte2(Treble_Bass_Intensity[vol]);                 
   2367                          }
   2368                          else {
   2369                              Audio_I2C_SendByte2(MaxxDSP_Bass_Commands[i]);
   \                     ??Write_Npcp215_Bass_Treble_2:
   \   000098                ; Setup parameters for call to function Audio_I2C_SendByte2
   \   000098   85....       MOV     ?V0 + 2,?V0 + 0
   \   00009B   E5..         MOV     A,?V0 + 2
   \   00009D   24..         ADD     A,#(MaxxDSP_Bass_Commands & 0xff)
   \   00009F   F582         MOV     DPL,A
   \   0000A1   E4           CLR     A
   \   0000A2   34..         ADDC    A,#((MaxxDSP_Bass_Commands >> 8) & 0xff)
   \   0000A4   802A         SJMP    ??Write_Npcp215_Bass_Treble_7
   2370                          }   
   \                     ??Write_Npcp215_Bass_Treble_8:
   \   0000A6   7411         MOV     A,#0x11
   \   0000A8   65..         XRL     A,?V0 + 0
   \   0000AA   601C         JZ      ??Write_Npcp215_Bass_Treble_9
   \   0000AC   7426         MOV     A,#0x26
   \   0000AE   65..         XRL     A,?V0 + 0
   \   0000B0   6016         JZ      ??Write_Npcp215_Bass_Treble_9
   \   0000B2   743B         MOV     A,#0x3b
   \   0000B4   65..         XRL     A,?V0 + 0
   \   0000B6   6010         JZ      ??Write_Npcp215_Bass_Treble_9
   \   0000B8   7441         MOV     A,#0x41
   \   0000BA   65..         XRL     A,?V0 + 0
   \   0000BC   70DA         JNZ     ??Write_Npcp215_Bass_Treble_2
   \   0000BE                ; Setup parameters for call to function Audio_I2C_SendByte2
   \   0000BE   EE           MOV     A,R6
   \   0000BF   24..         ADD     A,#(Treble_Bass_Intensity & 0xff)
   \   0000C1   F582         MOV     DPL,A
   \   0000C3   EF           MOV     A,R7
   \   0000C4   34..         ADDC    A,#((Treble_Bass_Intensity >> 8) & 0xff)
   \   0000C6   8008         SJMP    ??Write_Npcp215_Bass_Treble_7
   2371                      }          
   \                     ??Write_Npcp215_Bass_Treble_9:
   \   0000C8                ; Setup parameters for call to function Audio_I2C_SendByte2
   \   0000C8   EE           MOV     A,R6
   \   0000C9   24..         ADD     A,#(Treble_Bass_TAB & 0xff)
   \   0000CB   F582         MOV     DPL,A
   \   0000CD   EF           MOV     A,R7
   \   0000CE   34..         ADDC    A,#((Treble_Bass_TAB >> 8) & 0xff)
   \                     ??Write_Npcp215_Bass_Treble_7:
   \   0000D0   F583         MOV     DPH,A
   \   0000D2   E4           CLR     A
   \   0000D3   93           MOVC    A,@A+DPTR
   \   0000D4   F9           MOV     R1,A
   \   0000D5   90....       MOV     DPTR,#(Audio_I2C_SendByte2 & 0xffff)
   \   0000D8   74..         MOV     A,#((Audio_I2C_SendByte2 >> 16) & 0xff)
   \   0000DA   12....       LCALL   ?BCALL               ; Banked call to: DPTR()
   2372                      Audio_ReceiveACK2();
   \   0000DD                ; Setup parameters for call to function Audio_ReceiveACK2
   \   0000DD   90....       MOV     DPTR,#(Audio_ReceiveACK2 & 0xffff)
   \   0000E0   74..         MOV     A,#((Audio_ReceiveACK2 >> 16) & 0xff)
   \   0000E2   12....       LCALL   ?BCALL               ; Banked call to: DPTR()
   2373                  }
   \   0000E5   05..         INC     ?V0 + 0
   \   0000E7   E5..         MOV     A,?V0 + 0
   \   0000E9   C3           CLR     C
   \   0000EA   9442         SUBB    A,#0x42
   \   0000EC   40B8         JC      ??Write_Npcp215_Bass_Treble_8
   2374          	}
   2375              //发送停止信号
   2376              Audio_I2C_Stop2();     // Stop and return    
   \                     ??Write_Npcp215_Bass_Treble_6:
   \   0000EE                ; Setup parameters for call to function Audio_I2C_Stop2
   \   0000EE   90....       MOV     DPTR,#(Audio_I2C_Stop2 & 0xffff)
   \   0000F1   74..         MOV     A,#((Audio_I2C_Stop2 >> 16) & 0xff)
   \   0000F3   12....       LCALL   ?BCALL               ; Banked call to: DPTR()
   2377          }
   \   0000F6   7F04         MOV     R7,#0x4
   \   0000F8   02....       LJMP    ?BANKED_LEAVE_SP
   2378          #endif
   2379          
   2380          #pragma location="DSP_IIC_API1"

   \                                 In segment DSP_IIC_API1, align 1, keep-with-next
   2381          void Main_Vol_Set(void)
   \                     Main_Vol_Set:
   2382          {
   \   000000   EE           MOV     A,R6
   \   000001   C0E0         PUSH    A
   \   000003                ; Saved register size: 1
   \   000003                ; Auto size: 0
   2383              u8 main_vol = sys_ctl.main_vol + 1;    
   \   000003   90....       MOV     DPTR,#(sys_ctl + 65)
   \   000006   E0           MOVX    A,@DPTR
   \   000007   F9           MOV     R1,A
   \   000008   7401         MOV     A,#0x1
   \   00000A   29           ADD     A,R1
   \   00000B   FE           MOV     R6,A
   2384              Set_AudioCodec_Volume(sys_ctl.main_vol);
   \   00000C                ; Setup parameters for call to function Set_AudioCodec_Volume
   \   00000C   90....       MOV     DPTR,#(Set_AudioCodec_Volume & 0xffff)
   \   00000F   74..         MOV     A,#((Set_AudioCodec_Volume >> 16) & 0xff)
   \   000011   12....       LCALL   ?BCALL               ; Banked call to: DPTR()
   2385              sys_param_write8(PARAM_MAIN, main_vol);
   \   000014                ; Setup parameters for call to function spi_param_write8
   \   000014   EE           MOV     A,R6
   \   000015   FB           MOV     R3,A
   \   000016   7A09         MOV     R2,#0x9
   \   000018   7900         MOV     R1,#0x0
   \   00001A   90....       MOV     DPTR,#(spi_param_write8 & 0xffff)
   \   00001D   74..         MOV     A,#((spi_param_write8 >> 16) & 0xff)
   \   00001F   12....       LCALL   ?BCALL               ; Banked call to: DPTR()
   2386          }
   \   000022   02....       LJMP    ?Subroutine16
   2387          
   2388          #pragma location="DSP_IIC_API3"

   \                                 In segment DSP_IIC_API3, align 1, keep-with-next
   2389          void Bass_Vol_Set(void)
   \                     Bass_Vol_Set:
   2390          {
   \   000000   EE           MOV     A,R6
   \   000001   C0E0         PUSH    A
   \   000003                ; Saved register size: 1
   \   000003                ; Auto size: 0
   2391              u8 Bass_vol = sys_ctl.Bass_vol + 11;
   \   000003   90....       MOV     DPTR,#(sys_ctl + 68)
   \   000006   E0           MOVX    A,@DPTR
   \   000007   F9           MOV     R1,A
   \   000008   740B         MOV     A,#0xb
   \   00000A   29           ADD     A,R1
   \   00000B   FE           MOV     R6,A
   2392              Write_Npcp215_Bass_Treble(sys_ctl.Bass_vol,0);
   \   00000C                ; Setup parameters for call to function Write_Npcp215_Bass_Treble
   \   00000C   C2F0         CLR     B.0
   \   00000E   90....       MOV     DPTR,#(Write_Npcp215_Bass_Treble & 0xffff)
   \   000011   74..         MOV     A,#((Write_Npcp215_Bass_Treble >> 16) & 0xff)
   \   000013   12....       LCALL   ?BCALL               ; Banked call to: DPTR()
   2393              sys_param_write8(PARAM_BASS, Bass_vol);
   \   000016                ; Setup parameters for call to function spi_param_write8
   \   000016   EE           MOV     A,R6
   \   000017   FB           MOV     R3,A
   \   000018   7A0B         MOV     R2,#0xb
   \   00001A                REQUIRE ?Subroutine20
   \   00001A                ; // Fall through to label ?Subroutine20
   2394          }
   2395          
   2396          #pragma location="DSP_IIC_API3"

   \                                 In segment DSP_IIC_API3, align 1, keep-with-next
   2397          void Treble_Vol_Set(void)
   \                     Treble_Vol_Set:
   2398          {
   \   000000   EE           MOV     A,R6
   \   000001   C0E0         PUSH    A
   \   000003                ; Saved register size: 1
   \   000003                ; Auto size: 0
   2399              u8 Treble_vol = sys_ctl.Trable_vol + 11;    
   \   000003   90....       MOV     DPTR,#(sys_ctl + 66)
   \   000006   E0           MOVX    A,@DPTR
   \   000007   F9           MOV     R1,A
   \   000008   740B         MOV     A,#0xb
   \   00000A   29           ADD     A,R1
   \   00000B   FE           MOV     R6,A
   2400              Write_Npcp215_Bass_Treble(sys_ctl.Trable_vol,1);
   \   00000C                ; Setup parameters for call to function Write_Npcp215_Bass_Treble
   \   00000C   D2F0         SETB    B.0
   \   00000E   90....       MOV     DPTR,#(Write_Npcp215_Bass_Treble & 0xffff)
   \   000011   74..         MOV     A,#((Write_Npcp215_Bass_Treble >> 16) & 0xff)
   \   000013   12....       LCALL   ?BCALL               ; Banked call to: DPTR()
   2401              sys_param_write8(PARAM_TREBLE, Treble_vol);
   \   000016                ; Setup parameters for call to function spi_param_write8
   \   000016   EE           MOV     A,R6
   \   000017   FB           MOV     R3,A
   \   000018   7A0A         MOV     R2,#0xa
   \   00001A   80..         SJMP    ?Subroutine20
   2402          }
   2403          #pragma location="CS8416_IIC_API"

   \                                 In segment CS8416_IIC_API, align 1, keep-with-next
   2404          void SW_Vol_Set(void)
   \                     SW_Vol_Set:
   2405          {
   \   000000   EE           MOV     A,R6
   \   000001   C0E0         PUSH    A
   \   000003                ; Saved register size: 1
   \   000003                ; Auto size: 0
   2406              u8 Sub_vol = sys_ctl.Sub_vol + 1;
   \   000003   90....       MOV     DPTR,#(sys_ctl + 67)
   \   000006   E0           MOVX    A,@DPTR
   \   000007   F9           MOV     R1,A
   \   000008   7401         MOV     A,#0x1
   \   00000A   29           ADD     A,R1
   \   00000B   FE           MOV     R6,A
   2407              Set_Sub_Volume(sys_ctl.Sub_vol);
   \   00000C                ; Setup parameters for call to function Set_Sub_Volume
   \   00000C   90....       MOV     DPTR,#(Set_Sub_Volume & 0xffff)
   \   00000F   74..         MOV     A,#((Set_Sub_Volume >> 16) & 0xff)
   \   000011   12....       LCALL   ?BCALL               ; Banked call to: DPTR()
   2408              sys_param_write8(PARAM_SUB, Sub_vol);
   \   000014                ; Setup parameters for call to function spi_param_write8
   \   000014   EE           MOV     A,R6
   \   000015   FB           MOV     R3,A
   \   000016   7A0C         MOV     R2,#0xc
   \   000018   7900         MOV     R1,#0x0
   \   00001A   90....       MOV     DPTR,#(spi_param_write8 & 0xffff)
   \   00001D   74..         MOV     A,#((spi_param_write8 >> 16) & 0xff)
   \   00001F   12....       LCALL   ?BCALL               ; Banked call to: DPTR()
   2409          }
   \   000022   D0E0         POP     A
   \   000024   FE           MOV     R6,A
   \   000025   02....       LJMP    ?BRET
   2410          
   2411          
   2412          #pragma location="DSP_IIC_API1"

   \                                 In segment DSP_IIC_API1, align 1, keep-with-next
   2413          void AudioCodec_Volume_Set(u8 function,bool Up_Down)					
   \                     AudioCodec_Volume_Set:
   2414          {
   \   000000   C0..         PUSH    ?VB
   \   000002                ; Saved register size: 1
   \   000002                ; Auto size: 0
   \   000002   A2F0         MOV     C,B.0
   \   000004   92..         MOV     ?VB.0,C
   2415              switch(function)
   \   000006   E9           MOV     A,R1
   \   000007   12....       LCALL   ?UC_SWITCH_DENSE
   \                     `?<Jumptable for AudioCodec_Volume_Set>_0`:
   \   00000A   02           DB        2
   \   00000B   02           DB        2
   \   00000C   ....         DW        ??AudioCodec_Volume_Set_0
   \   00000E   ....         DW        ??AudioCodec_Volume_Set_1
   \   000010   ....         DW        ??AudioCodec_Volume_Set_2
   \   000012   ....         DW        ??AudioCodec_Volume_Set_3
   2416              {   
   2417                  case STATE_TREBLE:
   2418                      if(Up_Down)
   \                     ??AudioCodec_Volume_Set_3:
   \   000014   A2..         MOV     C,?VB.0
   \   000016   90....       MOV     DPTR,#(sys_ctl + 66)
   \   000019   E0           MOVX    A,@DPTR
   \   00001A   5003         JNC     ??AudioCodec_Volume_Set_4
   2419          			{
   2420          				sys_ctl.Trable_vol++;
   \   00001C   04           INC     A
   \   00001D   8002         SJMP    ??AudioCodec_Volume_Set_5
   2421          			}
   2422          			else
   2423          			{
   2424          				sys_ctl.Trable_vol--; 
   \                     ??AudioCodec_Volume_Set_4:
   \   00001F   24FF         ADD     A,#-0x1
   \                     ??AudioCodec_Volume_Set_5:
   \   000021   12....       LCALL   ?Subroutine3
   2425          			}                       
   2426          			if(sys_ctl.Trable_vol >  10)sys_ctl.Trable_vol=	10;
   \                     ??CrossCallReturnLabel_38:
   \   000024   4004         JC      ??AudioCodec_Volume_Set_6
   \   000026   740A         MOV     A,#0xa
   \   000028   800D         SJMP    ??AudioCodec_Volume_Set_7
   2427          			else if(sys_ctl.Trable_vol < -10)sys_ctl.Trable_vol= -10;
   \                     ??AudioCodec_Volume_Set_6:
   \   00002A   EA           MOV     A,R2
   \   00002B   C3           CLR     C
   \   00002C   94F6         SUBB    A,#-0xa
   \   00002E   A2D2         MOV     C,0xD0 /* PSW */.2
   \   000030   65D0         XRL     A,PSW
   \   000032   33           RLC     A
   \   000033   5003         JNC     ??AudioCodec_Volume_Set_8
   \   000035   74F6         MOV     A,#-0xa
   \                     ??AudioCodec_Volume_Set_7:
   \   000037   F0           MOVX    @DPTR,A
   2428          			Treble_Vol_Set();           
   \                     ??AudioCodec_Volume_Set_8:
   \   000038                ; Setup parameters for call to function Treble_Vol_Set
   \   000038   90....       MOV     DPTR,#(Treble_Vol_Set & 0xffff)
   \   00003B   74..         MOV     A,#((Treble_Vol_Set >> 16) & 0xff)
   \   00003D   02....       LJMP    ??AudioCodec_Volume_Set_9
   2429                      break;
   2430                      
   2431                  case STATE_SUB:
   2432                      if(Up_Down)
   \                     ??AudioCodec_Volume_Set_1:
   \   000040   A2..         MOV     C,?VB.0
   \   000042   90....       MOV     DPTR,#(sys_ctl + 67)
   \   000045   E0           MOVX    A,@DPTR
   \   000046   5003         JNC     ??AudioCodec_Volume_Set_10
   2433          			{
   2434          				sys_ctl.Sub_vol++;
   \   000048   04           INC     A
   \   000049   8002         SJMP    ??AudioCodec_Volume_Set_11
   2435          			}
   2436          			else
   2437          			{
   2438          				sys_ctl.Sub_vol--; 
   \                     ??AudioCodec_Volume_Set_10:
   \   00004B   24FF         ADD     A,#-0x1
   \                     ??AudioCodec_Volume_Set_11:
   \   00004D   F0           MOVX    @DPTR,A
   2439          			}
   2440          			if(sys_ctl.Sub_vol > 32)sys_ctl.Sub_vol = 32;
   \   00004E   12....       LCALL   ?Subroutine4
   \                     ??CrossCallReturnLabel_42:
   \   000051   4006         JC      ??AudioCodec_Volume_Set_12
   \   000053   7420         MOV     A,#0x20
   \                     ??AudioCodec_Volume_Set_13:
   \   000055   F0           MOVX    @DPTR,A
   \   000056   02....       LJMP    ??AudioCodec_Volume_Set_14 & 0xFFFF
   2441          			else if(sys_ctl.Sub_vol <  1)sys_ctl.Sub_vol = 0;
   \                     ??AudioCodec_Volume_Set_12:
   \   000059   12....       LCALL   ?Subroutine6
   \                     ??CrossCallReturnLabel_44:
   \   00005C   5003         JNC     ??AudioCodec_Volume_Set_15
   \   00005E   E4           CLR     A
   \   00005F   80F4         SJMP    ??AudioCodec_Volume_Set_13
   2442          			else SW_Vol_Set();
   \                     ??AudioCodec_Volume_Set_15:
   \   000061                ; Setup parameters for call to function SW_Vol_Set
   \   000061   90....       MOV     DPTR,#(SW_Vol_Set & 0xffff)
   \   000064   74..         MOV     A,#((SW_Vol_Set >> 16) & 0xff)
   \   000066   02....       LJMP    ??AudioCodec_Volume_Set_9
   2443                      break;
   2444                      
   2445                  case STATE_BASS:
   2446                      if(Up_Down)
   \                     ??AudioCodec_Volume_Set_2:
   \   000069   A2..         MOV     C,?VB.0
   \   00006B   90....       MOV     DPTR,#(sys_ctl + 68)
   \   00006E   E0           MOVX    A,@DPTR
   \   00006F   5003         JNC     ??AudioCodec_Volume_Set_16
   2447          			{
   2448          				sys_ctl.Bass_vol++;	
   \   000071   04           INC     A
   \   000072   8002         SJMP    ??AudioCodec_Volume_Set_17
   2449          			}
   2450          			else
   2451          			{
   2452          				sys_ctl.Bass_vol--;				   
   \                     ??AudioCodec_Volume_Set_16:
   \   000074   24FF         ADD     A,#-0x1
   \                     ??AudioCodec_Volume_Set_17:
   \   000076   12....       LCALL   ?Subroutine3
   2453          			}            
   2454          			if(sys_ctl.Bass_vol >  10)sys_ctl.Bass_vol= 10;
   \                     ??CrossCallReturnLabel_39:
   \   000079   4004         JC      ??AudioCodec_Volume_Set_18
   \   00007B   740A         MOV     A,#0xa
   \   00007D   800D         SJMP    ??AudioCodec_Volume_Set_19
   2455          			else if(sys_ctl.Bass_vol < -10)sys_ctl.Bass_vol=-10;
   \                     ??AudioCodec_Volume_Set_18:
   \   00007F   EA           MOV     A,R2
   \   000080   C3           CLR     C
   \   000081   94F6         SUBB    A,#-0xa
   \   000083   A2D2         MOV     C,0xD0 /* PSW */.2
   \   000085   65D0         XRL     A,PSW
   \   000087   33           RLC     A
   \   000088   5003         JNC     ??AudioCodec_Volume_Set_20
   \   00008A   74F6         MOV     A,#-0xa
   \                     ??AudioCodec_Volume_Set_19:
   \   00008C   F0           MOVX    @DPTR,A
   2456          			Bass_Vol_Set();          
   \                     ??AudioCodec_Volume_Set_20:
   \   00008D                ; Setup parameters for call to function Bass_Vol_Set
   \   00008D   90....       MOV     DPTR,#(Bass_Vol_Set & 0xffff)
   \   000090   74..         MOV     A,#((Bass_Vol_Set >> 16) & 0xff)
   \   000092   02....       LJMP    ??AudioCodec_Volume_Set_9
   2457                      break;
   2458                     
   2459                  default:
   2460                      if(Up_Down)
   \                     ??AudioCodec_Volume_Set_0:
   \   000095   A2..         MOV     C,?VB.0
   \   000097   90....       MOV     DPTR,#(sys_ctl + 67)
   \   00009A   E0           MOVX    A,@DPTR
   \   00009B   5016         JNC     ??AudioCodec_Volume_Set_21
   2461                      {
   2462                          sys_ctl.Sub_vol++;
   \   00009D   04           INC     A
   \   00009E   F0           MOVX    @DPTR,A
   2463                          sys_ctl.main_vol++;
   \   00009F   90....       MOV     DPTR,#(sys_ctl + 65)
   \   0000A2   E0           MOVX    A,@DPTR
   \   0000A3   04           INC     A
   \   0000A4   F0           MOVX    @DPTR,A
   2464                          if(sys_ctl.main_vol > 32)sys_ctl.main_vol = 32;
   \   0000A5   C3           CLR     C
   \   0000A6   9421         SUBB    A,#0x21
   \   0000A8   A2D2         MOV     C,0xD0 /* PSW */.2
   \   0000AA   65D0         XRL     A,PSW
   \   0000AC   33           RLC     A
   \   0000AD   4015         JC      ??AudioCodec_Volume_Set_22
   \   0000AF   7420         MOV     A,#0x20
   \   0000B1   8010         SJMP    ??AudioCodec_Volume_Set_23
   2465                      }
   2466                      else
   2467                      {
   2468                          sys_ctl.Sub_vol--;
   \                     ??AudioCodec_Volume_Set_21:
   \   0000B3   24FF         ADD     A,#-0x1
   \   0000B5   F0           MOVX    @DPTR,A
   2469                          sys_ctl.main_vol--;
   \   0000B6   90....       MOV     DPTR,#(sys_ctl + 65)
   \   0000B9   E0           MOVX    A,@DPTR
   \   0000BA   24FF         ADD     A,#-0x1
   \   0000BC   F0           MOVX    @DPTR,A
   2470                          if(sys_ctl.main_vol < 1)sys_ctl.main_vol = 0;
   \   0000BD   12....       LCALL   ??Subroutine6_0
   \                     ??CrossCallReturnLabel_45:
   \   0000C0   5002         JNC     ??AudioCodec_Volume_Set_22
   \   0000C2   E4           CLR     A
   \                     ??AudioCodec_Volume_Set_23:
   \   0000C3   F0           MOVX    @DPTR,A
   2471                      }
   2472                      Main_Vol_Set();         
   \                     ??AudioCodec_Volume_Set_22:
   \   0000C4                ; Setup parameters for call to function Main_Vol_Set
   \   0000C4   90....       MOV     DPTR,#(Main_Vol_Set & 0xffff)
   \   0000C7   74..         MOV     A,#((Main_Vol_Set >> 16) & 0xff)
   \   0000C9   12....       LCALL   ?BCALL               ; Banked call to: DPTR()
   2473                      if(sys_ctl.Sub_vol > 32)sys_ctl.Sub_vol = 32;
   \   0000CC   90....       MOV     DPTR,#(sys_ctl + 67)
   \   0000CF   12....       LCALL   ?Subroutine4
   \                     ??CrossCallReturnLabel_43:
   \   0000D2   4005         JC      ??AudioCodec_Volume_Set_24
   \   0000D4   7420         MOV     A,#0x20
   \                     ??AudioCodec_Volume_Set_25:
   \   0000D6   F0           MOVX    @DPTR,A
   \   0000D7   8010         SJMP    ??AudioCodec_Volume_Set_26
   2474          			else if(sys_ctl.Sub_vol <  1)sys_ctl.Sub_vol = 0;
   \                     ??AudioCodec_Volume_Set_24:
   \   0000D9   12....       LCALL   ?Subroutine6
   \                     ??CrossCallReturnLabel_46:
   \   0000DC   5003         JNC     ??AudioCodec_Volume_Set_27
   \   0000DE   E4           CLR     A
   \   0000DF   80F5         SJMP    ??AudioCodec_Volume_Set_25
   2475          			else SW_Vol_Set();                        
   \                     ??AudioCodec_Volume_Set_27:
   \   0000E1                ; Setup parameters for call to function SW_Vol_Set
   \   0000E1   90....       MOV     DPTR,#(SW_Vol_Set & 0xffff)
   \   0000E4   74..         MOV     A,#((SW_Vol_Set >> 16) & 0xff)
   \   0000E6   12....       LCALL   ?BCALL               ; Banked call to: DPTR()
   2476                      if(sys_ctl.main_vol == 1)
   \                     ??AudioCodec_Volume_Set_26:
   \   0000E9   90....       MOV     DPTR,#(sys_ctl + 65)
   \   0000EC   E0           MOVX    A,@DPTR
   \   0000ED   FA           MOV     R2,A
   \   0000EE   7401         MOV     A,#0x1
   \   0000F0   6A           XRL     A,R2
   \   0000F1   7004         JNZ     ??AudioCodec_Volume_Set_28
   2477                  	{    	    
   2478                  		AudioCodec_MUTE(UNMUTE);
   \   0000F3                ; Setup parameters for call to function AudioCodec_MUTE
   \   0000F3   7900         MOV     R1,#0x0
   \   0000F5   8005         SJMP    ??AudioCodec_Volume_Set_29
   2479                  	}
   2480                  	else if(sys_ctl.main_vol == 0) 
   \                     ??AudioCodec_Volume_Set_28:
   \   0000F7   EA           MOV     A,R2
   \   0000F8   700A         JNZ     ??AudioCodec_Volume_Set_30
   2481                  	{   	    
   2482                  		AudioCodec_MUTE(MUTE);
   \   0000FA                ; Setup parameters for call to function AudioCodec_MUTE
   \   0000FA   7901         MOV     R1,#0x1
   \                     ??AudioCodec_Volume_Set_29:
   \   0000FC   90....       MOV     DPTR,#(AudioCodec_MUTE & 0xffff)
   \   0000FF   74..         MOV     A,#((AudioCodec_MUTE >> 16) & 0xff)
   \   000101   12....       LCALL   ?BCALL               ; Banked call to: DPTR()
   2483                  	}               
   2484                      if((sys_ctl.mute_flag)&&(sys_ctl.main_vol > 0))
   \                     ??AudioCodec_Volume_Set_30:
   \   000104   90....       MOV     DPTR,#(sys_ctl + 27)
   \   000107   E0           MOVX    A,@DPTR
   \   000108   601B         JZ      ??AudioCodec_Volume_Set_14
   \   00010A   90....       MOV     DPTR,#(sys_ctl + 65)
   \   00010D   E0           MOVX    A,@DPTR
   \   00010E   12....       LCALL   ??Subroutine6_0
   \                     ??CrossCallReturnLabel_47:
   \   000111   4012         JC      ??AudioCodec_Volume_Set_14
   2485                      {
   2486                          sys_unmute(); 
   \   000113                ; Setup parameters for call to function sys_unmute
   \   000113   90....       MOV     DPTR,#(sys_unmute & 0xffff)
   \   000116   74..         MOV     A,#((sys_unmute >> 16) & 0xff)
   \   000118   12....       LCALL   ?BCALL               ; Banked call to: DPTR()
   2487                          //Audio_Slow_Volume(UNMUTE);
   2488                          AudioCodec_MUTE(UNMUTE);
   \   00011B                ; Setup parameters for call to function AudioCodec_MUTE
   \   00011B   7900         MOV     R1,#0x0
   \   00011D   90....       MOV     DPTR,#(AudioCodec_MUTE & 0xffff)
   \   000120   74..         MOV     A,#((AudioCodec_MUTE >> 16) & 0xff)
   \                     ??AudioCodec_Volume_Set_9:
   \   000122   12....       LCALL   ?BCALL               ; Banked call to: DPTR()
   2489                      }
   2490                      break;    
   2491              }
   2492              
   2493              //Set_AudioCodec_MaxxBass(sys_ctl.main_vol);
   2494          }
   \                     ??AudioCodec_Volume_Set_14:
   \   000125   02....       LJMP    ?Subroutine17

   \                                 In segment DSP_IIC_API1, align 1, keep-with-next
   \                     ?Subroutine6:
   \   000000   EA           MOV     A,R2
   \                     ??Subroutine6_0:
   \   000001   C3           CLR     C
   \   000002   9401         SUBB    A,#0x1
   \   000004   80..         SJMP    ?Subroutine18

   \                                 In segment DSP_IIC_API1, align 1, keep-with-next
   \                     ?Subroutine4:
   \   000000   E0           MOVX    A,@DPTR
   \   000001   FA           MOV     R2,A
   \   000002   C3           CLR     C
   \   000003   9421         SUBB    A,#0x21
   \   000005                REQUIRE ?Subroutine18
   \   000005                ; // Fall through to label ?Subroutine18

   \                                 In segment DSP_IIC_API1, align 1, keep-with-next
   \                     ?Subroutine3:
   \   000000   F0           MOVX    @DPTR,A
   \   000001   E0           MOVX    A,@DPTR
   \   000002   FA           MOV     R2,A
   \   000003   C3           CLR     C
   \   000004   940B         SUBB    A,#0xb
   \   000006   80..         SJMP    ?Subroutine18
   2495          
   2496          #pragma location="DSP_IIC_API1"

   \                                 In segment DSP_IIC_API1, align 1, keep-with-next
   2497          void AudioCodec_3d_Set(bool Up_Down)					
   \                     AudioCodec_3d_Set:
   2498          {
   \   000000   C0..         PUSH    ?V0 + 0
   \   000002   C0..         PUSH    ?V0 + 1
   \   000004   C0..         PUSH    ?V0 + 2
   \   000006   C0..         PUSH    ?V0 + 3
   \   000008                ; Saved register size: 4
   \   000008                ; Auto size: 0
   \   000008   A2F0         MOV     C,B.0
   2499          #if 1
   2500              if(Up_Down)
   \   00000A   90....       MOV     DPTR,#(sys_ctl + 71)
   \   00000D   E0           MOVX    A,@DPTR
   \   00000E   FA           MOV     R2,A
   \   00000F   7402         MOV     A,#0x2
   \   000011   6A           XRL     A,R2
   \   000012   503F         JNC     ??AudioCodec_3d_Set_0
   2501              {
   2502                  if(sys_ctl.Eq_tyle == STATUS_MOVIE){
   \   000014   701D         JNZ     ??AudioCodec_3d_Set_1
   2503                      set_AudioDAC_VOL(0x00D37F);
   \   000016                ; Setup parameters for call to function set_AudioDAC_VOL
   \   000016   90....       MOV     DPTR,#__Constant_d37f
   \                     ??AudioCodec_3d_Set_2:
   \   000019   78..         MOV     R0,#?V0 + 0
   \   00001B   12....       LCALL   ?L_MOV_C
   \   00001E   AA..         MOV     R2,?V0 + 0
   \   000020   AB..         MOV     R3,?V0 + 1
   \   000022   AC..         MOV     R4,?V0 + 2
   \   000024   AD..         MOV     R5,?V0 + 3
   \   000026   90....       MOV     DPTR,#(set_AudioDAC_VOL & 0xffff)
   \   000029   74..         MOV     A,#((set_AudioDAC_VOL >> 16) & 0xff)
   \   00002B   12....       LCALL   ?BCALL               ; Banked call to: DPTR()
   2504                      set_AudioDAC_VOL(0x00D60E);
   \   00002E                ; Setup parameters for call to function set_AudioDAC_VOL
   \   00002E   90....       MOV     DPTR,#__Constant_d60e
   \   000031   8045         SJMP    ??AudioCodec_3d_Set_3
   2505                  }
   2506                  else if(sys_ctl.Eq_tyle == STATUS_MUSIC){
   \                     ??AudioCodec_3d_Set_1:
   \   000033   EA           MOV     A,R2
   \   000034   90....       MOV     DPTR,#__Constant_d37f
   \   000037   78..         MOV     R0,#?V0 + 0
   \   000039   7027         JNZ     ??AudioCodec_3d_Set_4
   2507                      set_AudioDAC_VOL(0x00D37F);
   \   00003B                ; Setup parameters for call to function set_AudioDAC_VOL
   \                     ??AudioCodec_3d_Set_5:
   \   00003B   12....       LCALL   ?L_MOV_C
   \   00003E   AA..         MOV     R2,?V0 + 0
   \   000040   AB..         MOV     R3,?V0 + 1
   \   000042   AC..         MOV     R4,?V0 + 2
   \   000044   AD..         MOV     R5,?V0 + 3
   \   000046   90....       MOV     DPTR,#(set_AudioDAC_VOL & 0xffff)
   \   000049   74..         MOV     A,#((set_AudioDAC_VOL >> 16) & 0xff)
   \   00004B   12....       LCALL   ?BCALL               ; Banked call to: DPTR()
   2508                      set_AudioDAC_VOL(0x00D600);
   \   00004E                ; Setup parameters for call to function set_AudioDAC_VOL
   \   00004E   90....       MOV     DPTR,#__Constant_d600
   \   000051   8025         SJMP    ??AudioCodec_3d_Set_3
   2509                  }
   2510                  else {
   2511                      set_AudioDAC_VOL(0x00D37F);
   2512                      set_AudioDAC_VOL(0x00D607);
   2513                  }
   2514              }    
   2515              else
   2516              {
   2517                  if(sys_ctl.Eq_tyle == STATUS_MOVIE){
   \                     ??AudioCodec_3d_Set_0:
   \   000053   7005         JNZ     ??AudioCodec_3d_Set_6
   2518                      set_AudioDAC_VOL(0x00D33C);
   \   000055                ; Setup parameters for call to function set_AudioDAC_VOL
   \   000055   90....       MOV     DPTR,#__Constant_d33c
   \   000058   80BF         SJMP    ??AudioCodec_3d_Set_2
   2519                      set_AudioDAC_VOL(0x00D60E);
   2520                  }
   2521                  else if(sys_ctl.Eq_tyle == STATUS_MUSIC){
   \                     ??AudioCodec_3d_Set_6:
   \   00005A   EA           MOV     A,R2
   \   00005B   90....       MOV     DPTR,#__Constant_d300
   \   00005E   78..         MOV     R0,#?V0 + 0
   \   000060   60D9         JZ      ??AudioCodec_3d_Set_5
   2522                      set_AudioDAC_VOL(0x00D300);   
   \   000062                ; Setup parameters for call to function set_AudioDAC_VOL
   2523                      set_AudioDAC_VOL(0x00D600);
   2524                  }
   2525                  else {
   2526                      set_AudioDAC_VOL(0x00D300);   
   \                     ??AudioCodec_3d_Set_4:
   \   000062                ; Setup parameters for call to function set_AudioDAC_VOL
   \   000062   12....       LCALL   ?L_MOV_C
   \   000065   AA..         MOV     R2,?V0 + 0
   \   000067   AB..         MOV     R3,?V0 + 1
   \   000069   AC..         MOV     R4,?V0 + 2
   \   00006B   AD..         MOV     R5,?V0 + 3
   \   00006D   90....       MOV     DPTR,#(set_AudioDAC_VOL & 0xffff)
   \   000070   74..         MOV     A,#((set_AudioDAC_VOL >> 16) & 0xff)
   \   000072   12....       LCALL   ?BCALL               ; Banked call to: DPTR()
   2527                      set_AudioDAC_VOL(0x00D607);
   \   000075                ; Setup parameters for call to function set_AudioDAC_VOL
   \   000075   90....       MOV     DPTR,#__Constant_d607
   \                     ??AudioCodec_3d_Set_3:
   \   000078   78..         MOV     R0,#?V0 + 0
   \   00007A   12....       LCALL   ?L_MOV_C
   \   00007D   AA..         MOV     R2,?V0 + 0
   \   00007F   AB..         MOV     R3,?V0 + 1
   \   000081   AC..         MOV     R4,?V0 + 2
   \   000083   AD..         MOV     R5,?V0 + 3
   \   000085   90....       MOV     DPTR,#(set_AudioDAC_VOL & 0xffff)
   \   000088   74..         MOV     A,#((set_AudioDAC_VOL >> 16) & 0xff)
   \   00008A   12....       LCALL   ?BCALL               ; Banked call to: DPTR()
   2528                  }
   2529              }
   2530              Audio_I2C_Stop();     // Stop and return    
   \   00008D                ; Setup parameters for call to function Audio_I2C_Stop
   \   00008D   90....       MOV     DPTR,#(Audio_I2C_Stop & 0xffff)
   \   000090   74..         MOV     A,#((Audio_I2C_Stop >> 16) & 0xff)
   \   000092   12....       LCALL   ?BCALL               ; Banked call to: DPTR()
   2531          #endif    
   2532          }
   \   000095   02....       LJMP    ?Subroutine15
   2533          
   2534          #if 0
   2535          #pragma location="DSP_IIC_API1"
   2536          void AudioCodec_3d_Set(bool Up_Down)					
   2537          {
   2538              u8 i;
   2539              //发起始信号
   2540              Audio_I2C_Start();   
   2541              //写从地址
   2542              Audio_I2C_SendByte(MaxxDSPADDERSS);
   2543              Audio_ReceiveACK();
   2544              if(Up_Down)
   2545              {
   2546                  //set_AudioDAC_VOL(0x00D37F);
   2547                  //set_AudioDAC_VOL(0x00D607);
   2548                  for( i = 0 ;i< sizeof(MaxxDSP_3D_ON);i++)
   2549                  {  
   2550                      Audio_I2C_SendByte(MaxxDSP_3D_ON[i]);
   2551                      Audio_ReceiveACK();
   2552                  }
   2553              }    
   2554              else
   2555              {
   2556                  //set_AudioDAC_VOL(0x00D300);   
   2557                  //set_AudioDAC_VOL(0x00D607);
   2558                  for( i = 0 ;i< sizeof(MaxxDSP_3D_OFF);i++)
   2559                  {  
   2560                      Audio_I2C_SendByte(MaxxDSP_3D_OFF[i]);
   2561                      Audio_ReceiveACK();
   2562                  }
   2563              }
   2564              Audio_I2C_Stop();     // Stop and return    
   2565          }
   2566          #endif
   2567          
   2568          
   2569          #pragma location="DSP_IIC_API2"

   \                                 In segment DSP_IIC_API2, align 1, keep-with-next
   2570          void Audio_I2C_Start1(void)
   \                     Audio_I2C_Start1:
   2571          {
   \   000000                ; Saved register size: 0
   \   000000                ; Auto size: 0
   2572          	TA5731_DATA_OUTPUT;
   \   000000   12....       LCALL   ?Subroutine10
   2573          	TA5731_CLK_OUTPUT;
   \                     ??CrossCallReturnLabel_21:
   \   000003   53BBEF       ANL     0xbb,#0xef
   \   000006   D294         SETB    0x90.4
   2574          	TA5731_DATA_HIGH;
   \   000008   D286         SETB    0x80.6
   2575          	TA5731_CLK_HIGH;
   \   00000A   D294         SETB    0x90.4
   2576              delay(30);
   \   00000C                ; Setup parameters for call to function delay
   \   00000C   7A1E         MOV     R2,#0x1e
   \   00000E   7B00         MOV     R3,#0x0
   \   000010   12....       LCALL   delay & 0xFFFF
   2577          	TA5731_DATA_LOW;
   \   000013   C286         CLR     0x80.6
   2578              delay(30);
   \   000015                ; Setup parameters for call to function delay
   \   000015   7A1E         MOV     R2,#0x1e
   \   000017   7B00         MOV     R3,#0x0
   \   000019   12....       LCALL   delay & 0xFFFF
   2579          	TA5731_CLK_LOW;
   \   00001C   C294         CLR     0x90.4
   2580          	//Delay_myself;
   2581          	//TA5731_DATA_HIGH;
   2582          }
   \   00001E   02....       LJMP    ?BRET

   \                                 In segment DSP_IIC_API2, align 1, keep-with-next
   \                     ?Subroutine10:
   \   000000   53BABF       ANL     0xba,#0xbf
   \   000003   D286         SETB    0x80.6
   \   000005   22           RET
   2583          
   2584          #pragma location="DSP_IIC_API2"

   \                                 In segment DSP_IIC_API2, align 1, keep-with-next
   2585          void Audio_I2C_Stop1(void)
   \                     Audio_I2C_Stop1:
   2586          {
   \   000000                ; Saved register size: 0
   \   000000                ; Auto size: 0
   2587          	TA5731_DATA_OUTPUT;
   \   000000   12....       LCALL   ?Subroutine10
   2588          	TA5731_DATA_LOW;
   \                     ??CrossCallReturnLabel_22:
   \   000003   C286         CLR     0x80.6
   2589              delay(30);
   \   000005                ; Setup parameters for call to function delay
   \   000005   12....       LCALL   ?Subroutine9
   2590          	TA5731_CLK_HIGH;
   2591              delay(30);
   2592          	TA5731_DATA_HIGH;
   \                     ??CrossCallReturnLabel_18:
   \   000008   D286         SETB    0x80.6
   2593              delay(30);
   \   00000A                ; Setup parameters for call to function delay
   \   00000A   7A1E         MOV     R2,#0x1e
   \   00000C   7B00         MOV     R3,#0x0
   \   00000E   12....       LCALL   delay & 0xFFFF
   2594          }
   \   000011   02....       LJMP    ?BRET

   \                                 In segment DSP_IIC_API2, align 1, keep-with-next
   \                     ?Subroutine9:
   \   000000   7A1E         MOV     R2,#0x1e
   \   000002   7B00         MOV     R3,#0x0
   \   000004   12....       LCALL   delay & 0xFFFF
   \   000007   D294         SETB    0x90.4
   \   000009                ; Setup parameters for call to function delay
   \   000009                ; Setup parameters for call to function delay
   \   000009                ; Setup parameters for call to function delay
   \   000009   7A1E         MOV     R2,#0x1e
   \   00000B   7B00         MOV     R3,#0x0
   \   00000D   12....       LCALL   delay & 0xFFFF
   \   000010   22           RET
   2595          
   2596          #pragma location="DSP_IIC_API2"

   \                                 In segment DSP_IIC_API2, align 1, keep-with-next
   2597          bool Audio_ReceiveACK1(void)
   \                     Audio_ReceiveACK1:
   2598          {
   \   000000   C0..         PUSH    ?VB
   \   000002                ; Saved register size: 1
   \   000002                ; Auto size: 0
   2599              bool Ackflag = false;
   2600          	
   2601          	TA5731_DATA_INPUT;
   \   000002   43BA40       ORL     0xba,#0x40
   2602              delay(30);
   \   000005                ; Setup parameters for call to function delay
   \   000005   12....       LCALL   ?Subroutine9
   2603          	TA5731_CLK_HIGH;
   2604              delay(30);
   2605          	
   2606          	if(TA5731_DATA) 
   \                     ??CrossCallReturnLabel_19:
   \   000008   A286         MOV     C,0x80.6
   \   00000A   5007         JNC     ??Audio_ReceiveACK1_0
   2607              {   
   2608                  TA5731_DATA_OUTPUT;
   \   00000C   12....       LCALL   ?Subroutine10
   2609          		Ackflag = 1;
   \                     ??CrossCallReturnLabel_23:
   \   00000F   D2..         SETB    ?VB.0
   \   000011   8002         SJMP    ??Audio_ReceiveACK1_1
   2610              }
   2611          	else 
   2612          		Ackflag = 0;
   \                     ??Audio_ReceiveACK1_0:
   \   000013   C2..         CLR     ?VB.0
   2613          	
   2614          	TA5731_CLK_LOW;
   \                     ??Audio_ReceiveACK1_1:
   \   000015   C294         CLR     0x90.4
   2615          		
   2616              delay(30);
   \   000017                ; Setup parameters for call to function delay
   \   000017   7A1E         MOV     R2,#0x1e
   \   000019   7B00         MOV     R3,#0x0
   \   00001B   12....       LCALL   delay & 0xFFFF
   2617          
   2618          	return Ackflag;
   \   00001E   A2..         MOV     C,?VB.0
   \   000020   D0..         POP     ?VB
   \   000022   02....       LJMP    ?BRET
   2619          }
   2620          
   2621          #pragma location="DSP_IIC_API2"

   \                                 In segment DSP_IIC_API2, align 1, keep-with-next
   2622          void Audio_I2C_SendByte1(u8 Data)
   \                     Audio_I2C_SendByte1:
   2623          {
   \   000000   EE           MOV     A,R6
   \   000001   C0E0         PUSH    A
   \   000003   EF           MOV     A,R7
   \   000004   C0E0         PUSH    A
   \   000006                ; Saved register size: 2
   \   000006                ; Auto size: 0
   \   000006   E9           MOV     A,R1
   \   000007   FF           MOV     R7,A
   2624          	u32 i;
   2625          	
   2626              //delay(30);
   2627          	TA5731_DATA_OUTPUT;
   \   000008   12....       LCALL   ?Subroutine10
   2628          	
   2629          	for(i = 0;i < 8;i++)
   \                     ??CrossCallReturnLabel_24:
   \   00000B   7E08         MOV     R6,#0x8
   2630          	{
   2631          		if(Data & 0x80) TA5731_DATA_HIGH;
   \                     ??Audio_I2C_SendByte1_0:
   \   00000D   EF           MOV     A,R7
   \   00000E   A2E7         MOV     C,0xE0 /* A   */.7
   \   000010   5004         JNC     ??Audio_I2C_SendByte1_1
   \   000012   D286         SETB    0x80.6
   \   000014   8002         SJMP    ??Audio_I2C_SendByte1_2
   2632          		else			TA5731_DATA_LOW;
   \                     ??Audio_I2C_SendByte1_1:
   \   000016   C286         CLR     0x80.6
   2633          		delay(30);
   \                     ??Audio_I2C_SendByte1_2:
   \   000018                ; Setup parameters for call to function delay
   \   000018   12....       LCALL   ?Subroutine9
   2634          		TA5731_CLK_HIGH;
   2635          		delay(30);
   2636          		Data <<= 1;
   \                     ??CrossCallReturnLabel_20:
   \   00001B   EF           MOV     A,R7
   \   00001C   C3           CLR     C
   \   00001D   33           RLC     A
   \   00001E   FF           MOV     R7,A
   2637          		TA5731_CLK_LOW;
   \   00001F   C294         CLR     0x90.4
   2638          	}
   \   000021   1E           DEC     R6
   \   000022   EE           MOV     A,R6
   \   000023   70E8         JNZ     ??Audio_I2C_SendByte1_0
   2639          }
   \   000025   D0E0         POP     A
   \   000027   FF           MOV     R7,A
   \   000028   D0E0         POP     A
   \   00002A   FE           MOV     R6,A
   \   00002B   02....       LJMP    ?BRET
   2640          
   2641          #pragma location="DSP_CODE_API2"

   \                                 In segment DSP_CODE_API2, align 1, keep-with-next
   2642          void AudioData_Init1(void)
   \                     AudioData_Init1:
   2643          {
   \   000000   7408         MOV     A,#0x8
   \   000002   12....       LCALL   ?FUNC_ENTER_SP
   \   000005                ; Saved register size: 11
   \   000005                ; Auto size: 0
   2644              u32 i;
   2645              //发起始信号
   2646              Audio_I2C_Start1();   
   \   000005                ; Setup parameters for call to function Audio_I2C_Start1
   \   000005   90....       MOV     DPTR,#(Audio_I2C_Start1 & 0xffff)
   \   000008   74..         MOV     A,#((Audio_I2C_Start1 >> 16) & 0xff)
   \   00000A   12....       LCALL   ?BCALL               ; Banked call to: DPTR()
   2647              //写从地址
   2648              Audio_I2C_SendByte1(MaxxDSPADDERSS);
   \   00000D                ; Setup parameters for call to function Audio_I2C_SendByte1
   \   00000D   79E6         MOV     R1,#-0x1a
   \   00000F   90....       MOV     DPTR,#(Audio_I2C_SendByte1 & 0xffff)
   \   000012   74..         MOV     A,#((Audio_I2C_SendByte1 >> 16) & 0xff)
   \   000014   12....       LCALL   ?BCALL               ; Banked call to: DPTR()
   2649              Audio_ReceiveACK1();
   \   000017                ; Setup parameters for call to function Audio_ReceiveACK1
   \   000017   90....       MOV     DPTR,#(Audio_ReceiveACK1 & 0xffff)
   \   00001A   74..         MOV     A,#((Audio_ReceiveACK1 >> 16) & 0xff)
   \   00001C   12....       LCALL   ?BCALL               ; Banked call to: DPTR()
   2650              // 写数据
   2651          #if 1  
   2652              for( i = 0 ;i< sizeof(g_abMaxxDSPCommands_2);i++)
   \   00001F   90....       MOV     DPTR,#__Constant_0
   \   000022   78..         MOV     R0,#?V0 + 4
   \   000024   12....       LCALL   ?L_MOV_C
   2653              {
   2654                  Audio_I2C_SendByte1(g_abMaxxDSPCommands_2[i]);
   \                     ??AudioData_Init1_0:
   \   000027                ; Setup parameters for call to function Audio_I2C_SendByte1
   \   000027   85....       MOV     ?V0 + 0,?V0 + 4
   \   00002A   85....       MOV     ?V0 + 1,?V0 + 5
   \   00002D   E5..         MOV     A,?V0 + 0
   \   00002F   24..         ADD     A,#(g_abMaxxDSPCommands_2 & 0xff)
   \   000031   F582         MOV     DPL,A
   \   000033   E5..         MOV     A,?V0 + 1
   \   000035   34..         ADDC    A,#((g_abMaxxDSPCommands_2 >> 8) & 0xff)
   \   000037   F583         MOV     DPH,A
   \   000039   E4           CLR     A
   \   00003A   93           MOVC    A,@A+DPTR
   \   00003B   F9           MOV     R1,A
   \   00003C   90....       MOV     DPTR,#(Audio_I2C_SendByte1 & 0xffff)
   \   00003F   74..         MOV     A,#((Audio_I2C_SendByte1 >> 16) & 0xff)
   \   000041   12....       LCALL   ?BCALL               ; Banked call to: DPTR()
   2655                  Audio_ReceiveACK1();
   \   000044                ; Setup parameters for call to function Audio_ReceiveACK1
   \   000044   90....       MOV     DPTR,#(Audio_ReceiveACK1 & 0xffff)
   \   000047   74..         MOV     A,#((Audio_ReceiveACK1 >> 16) & 0xff)
   \   000049   12....       LCALL   ?BCALL               ; Banked call to: DPTR()
   2656              }
   \   00004C   90....       MOV     DPTR,#__Constant_1
   \   00004F   78..         MOV     R0,#?V0 + 4
   \   000051   12....       LCALL   ?L_ADD_C
   \   000054   90....       MOV     DPTR,#__Constant_34b
   \   000057   78..         MOV     R0,#?V0 + 0
   \   000059   12....       LCALL   ?L_MOV_C
   \   00005C   78..         MOV     R0,#?V0 + 0
   \   00005E   79..         MOV     R1,#?V0 + 4
   \   000060   12....       LCALL   ?UL_GT
   \   000063   40C2         JC      ??AudioData_Init1_0
   2657              for( i = 0 ;i< sizeof(g_abMaxxDSPCommands_3);i++)
   \   000065   90....       MOV     DPTR,#__Constant_0
   \   000068   78..         MOV     R0,#?V0 + 4
   \   00006A   12....       LCALL   ?L_MOV_C
   2658              {
   2659                  Audio_I2C_SendByte1(g_abMaxxDSPCommands_3[i]);
   \                     ??AudioData_Init1_1:
   \   00006D                ; Setup parameters for call to function Audio_I2C_SendByte1
   \   00006D   85....       MOV     ?V0 + 0,?V0 + 4
   \   000070   85....       MOV     ?V0 + 1,?V0 + 5
   \   000073   E5..         MOV     A,?V0 + 0
   \   000075   24..         ADD     A,#(g_abMaxxDSPCommands_3 & 0xff)
   \   000077   F582         MOV     DPL,A
   \   000079   E5..         MOV     A,?V0 + 1
   \   00007B   34..         ADDC    A,#((g_abMaxxDSPCommands_3 >> 8) & 0xff)
   \   00007D   F583         MOV     DPH,A
   \   00007F   E4           CLR     A
   \   000080   93           MOVC    A,@A+DPTR
   \   000081   F9           MOV     R1,A
   \   000082   90....       MOV     DPTR,#(Audio_I2C_SendByte1 & 0xffff)
   \   000085   74..         MOV     A,#((Audio_I2C_SendByte1 >> 16) & 0xff)
   \   000087   12....       LCALL   ?BCALL               ; Banked call to: DPTR()
   2660                  Audio_ReceiveACK1();
   \   00008A                ; Setup parameters for call to function Audio_ReceiveACK1
   \   00008A   90....       MOV     DPTR,#(Audio_ReceiveACK1 & 0xffff)
   \   00008D   74..         MOV     A,#((Audio_ReceiveACK1 >> 16) & 0xff)
   \   00008F   12....       LCALL   ?BCALL               ; Banked call to: DPTR()
   2661              }
   \   000092   90....       MOV     DPTR,#__Constant_1
   \   000095   78..         MOV     R0,#?V0 + 4
   \   000097   12....       LCALL   ?L_ADD_C
   \   00009A   90....       MOV     DPTR,#__Constant_345
   \   00009D   78..         MOV     R0,#?V0 + 0
   \   00009F   12....       LCALL   ?L_MOV_C
   \   0000A2   78..         MOV     R0,#?V0 + 0
   \   0000A4   79..         MOV     R1,#?V0 + 4
   \   0000A6   12....       LCALL   ?UL_GT
   \   0000A9   40C2         JC      ??AudioData_Init1_1
   2662          #endif   
   2663              //发送停止信号 
   2664              Audio_I2C_Stop1();     // Stop and return
   \   0000AB                ; Setup parameters for call to function Audio_I2C_Stop1
   \   0000AB   90....       MOV     DPTR,#(Audio_I2C_Stop1 & 0xffff)
   \   0000AE   74..         MOV     A,#((Audio_I2C_Stop1 >> 16) & 0xff)
   \   0000B0   12....       LCALL   ?BCALL               ; Banked call to: DPTR()
   2665          }
   \   0000B3   7F08         MOV     R7,#0x8
   \   0000B5   02....       LJMP    ?BANKED_LEAVE_SP
   2666          
   2667          
   2668          
   2669          
   2670          
   2671          #if 0
   2672          #pragma location="DSP_CODE_API3"
   2673          void sta369_write_byte(u8 adr, u8 value)
   2674          {
   2675              //发起始信号
   2676              Audio_I2C_Start2();
   2677              //写从地址
   2678              Audio_I2C_SendByte2(adr);
   2679              Audio_ReceiveACK2();
   2680              //写数据
   2681              Audio_I2C_SendByte2(value);
   2682              Audio_ReceiveACK2();
   2683              Audio_I2C_Stop2();     // Stop and return  
   2684          }
   2685          #endif
   2686          
   2687          #if 0
   2688          #pragma location="DSP_CODE_API3"
   2689          void sta369_Init(void)
   2690          { 
   2691              u8 i;
   2692              for( i = 0 ;i< sizeof(sta350_ommands);i++)
   2693              {  
   2694                  Audio_I2C_Start2();
   2695                  Audio_I2C_SendByte2(STA369ADDERSS);
   2696                  Audio_ReceiveACK2();
   2697                  Audio_I2C_SendByte2(sta350_ommands[i]);
   2698                  Audio_ReceiveACK2();
   2699                  Audio_I2C_SendByte2(sta350_ommands[++i]);
   2700                  Audio_ReceiveACK2();
   2701                  Audio_I2C_Stop2();     // Stop and return  
   2702                  //delay_ms(2);
   2703              }                       
   2704          }
   2705          #endif
   2706          
   2707          #pragma location="DSP_IIC_EQ"

   \                                 In segment DSP_IIC_EQ, align 1, keep-with-next
   2708          void Audio_I2C_Start_Eq(void)
   \                     Audio_I2C_Start_Eq:
   2709          {
   \   000000                ; Saved register size: 0
   \   000000                ; Auto size: 0
   2710          	TA5731_DATA_OUTPUT;
   \   000000   12....       LCALL   ?Subroutine14
   2711          	TA5731_CLK_OUTPUT;
   \                     ??CrossCallReturnLabel_34:
   \   000003   53BBEF       ANL     0xbb,#0xef
   \   000006   D294         SETB    0x90.4
   2712          	TA5731_DATA_HIGH;
   \   000008   D286         SETB    0x80.6
   2713          	TA5731_CLK_HIGH;
   \   00000A   D294         SETB    0x90.4
   2714              delay(30);
   \   00000C                ; Setup parameters for call to function delay
   \   00000C   7A1E         MOV     R2,#0x1e
   \   00000E   7B00         MOV     R3,#0x0
   \   000010   12....       LCALL   delay & 0xFFFF
   2715          	TA5731_DATA_LOW;
   \   000013   C286         CLR     0x80.6
   2716              delay(30);
   \   000015                ; Setup parameters for call to function delay
   \   000015   7A1E         MOV     R2,#0x1e
   \   000017   7B00         MOV     R3,#0x0
   \   000019   12....       LCALL   delay & 0xFFFF
   2717          	TA5731_CLK_LOW;
   \   00001C   C294         CLR     0x90.4
   2718          	//Delay_myself;
   2719          	//TA5731_DATA_HIGH;
   2720          }
   \   00001E   02....       LJMP    ?BRET

   \                                 In segment DSP_IIC_EQ, align 1, keep-with-next
   \                     ?Subroutine14:
   \   000000   53BABF       ANL     0xba,#0xbf
   \   000003   D286         SETB    0x80.6
   \   000005   22           RET
   2721          
   2722          #pragma location="DSP_IIC_EQ"

   \                                 In segment DSP_IIC_EQ, align 1, keep-with-next
   2723          void Audio_I2C_Stop_Eq(void)
   \                     Audio_I2C_Stop_Eq:
   2724          {
   \   000000                ; Saved register size: 0
   \   000000                ; Auto size: 0
   2725          	TA5731_DATA_OUTPUT;
   \   000000   12....       LCALL   ?Subroutine14
   2726          	TA5731_DATA_LOW;
   \                     ??CrossCallReturnLabel_35:
   \   000003   C286         CLR     0x80.6
   2727              delay(30);
   \   000005                ; Setup parameters for call to function delay
   \   000005   12....       LCALL   ?Subroutine12
   2728          	TA5731_CLK_HIGH;
   2729              delay(30);
   2730          	TA5731_DATA_HIGH;
   \                     ??CrossCallReturnLabel_28:
   \   000008   D286         SETB    0x80.6
   2731              delay(30);
   \   00000A                ; Setup parameters for call to function delay
   \   00000A   7A1E         MOV     R2,#0x1e
   \   00000C   7B00         MOV     R3,#0x0
   \   00000E   12....       LCALL   delay & 0xFFFF
   2732          }
   \   000011   02....       LJMP    ?BRET

   \                                 In segment DSP_IIC_EQ, align 1, keep-with-next
   \                     ?Subroutine12:
   \   000000   7A1E         MOV     R2,#0x1e
   \   000002   7B00         MOV     R3,#0x0
   \   000004   12....       LCALL   delay & 0xFFFF
   \   000007   D294         SETB    0x90.4
   \   000009                ; Setup parameters for call to function delay
   \   000009                ; Setup parameters for call to function delay
   \   000009                ; Setup parameters for call to function delay
   \   000009   7A1E         MOV     R2,#0x1e
   \   00000B   7B00         MOV     R3,#0x0
   \   00000D   12....       LCALL   delay & 0xFFFF
   \   000010   22           RET
   2733          
   2734          #pragma location="DSP_IIC_EQ"

   \                                 In segment DSP_IIC_EQ, align 1, keep-with-next
   2735          bool Audio_ReceiveACK_Eq(void)
   \                     Audio_ReceiveACK_Eq:
   2736          {
   \   000000   C0..         PUSH    ?VB
   \   000002                ; Saved register size: 1
   \   000002                ; Auto size: 0
   2737              bool Ackflag = false;
   2738          	
   2739          	TA5731_DATA_INPUT;
   \   000002   43BA40       ORL     0xba,#0x40
   2740              delay(30);
   \   000005                ; Setup parameters for call to function delay
   \   000005   12....       LCALL   ?Subroutine12
   2741          	TA5731_CLK_HIGH;
   2742              delay(30);
   2743          	
   2744          	if(TA5731_DATA) 
   \                     ??CrossCallReturnLabel_29:
   \   000008   A286         MOV     C,0x80.6
   \   00000A   5007         JNC     ??Audio_ReceiveACK_Eq_0
   2745              {   
   2746                  TA5731_DATA_OUTPUT;
   \   00000C   12....       LCALL   ?Subroutine14
   2747          		Ackflag = 1;
   \                     ??CrossCallReturnLabel_36:
   \   00000F   D2..         SETB    ?VB.0
   \   000011   8002         SJMP    ??Audio_ReceiveACK_Eq_1
   2748              }
   2749          	else 
   2750          		Ackflag = 0;
   \                     ??Audio_ReceiveACK_Eq_0:
   \   000013   C2..         CLR     ?VB.0
   2751          	
   2752          	TA5731_CLK_LOW;
   \                     ??Audio_ReceiveACK_Eq_1:
   \   000015   C294         CLR     0x90.4
   2753          		
   2754              delay(30);
   \   000017                ; Setup parameters for call to function delay
   \   000017   7A1E         MOV     R2,#0x1e
   \   000019   7B00         MOV     R3,#0x0
   \   00001B   12....       LCALL   delay & 0xFFFF
   2755          
   2756          	return Ackflag;
   \   00001E   A2..         MOV     C,?VB.0
   \   000020   D0..         POP     ?VB
   \   000022   02....       LJMP    ?BRET
   2757          }
   2758          
   2759          #pragma location="DSP_IIC_EQ"

   \                                 In segment DSP_IIC_EQ, align 1, keep-with-next
   2760          void Audio_I2C_SendByte_Eq(u8 Data)
   \                     Audio_I2C_SendByte_Eq:
   2761          {
   \   000000   EE           MOV     A,R6
   \   000001   C0E0         PUSH    A
   \   000003   EF           MOV     A,R7
   \   000004   C0E0         PUSH    A
   \   000006                ; Saved register size: 2
   \   000006                ; Auto size: 0
   \   000006   E9           MOV     A,R1
   \   000007   FF           MOV     R7,A
   2762          	u32 i;
   2763          	
   2764              //delay(30);
   2765          	TA5731_DATA_OUTPUT;
   \   000008   12....       LCALL   ?Subroutine14
   2766          	
   2767          	for(i = 0;i < 8;i++)
   \                     ??CrossCallReturnLabel_37:
   \   00000B   7E08         MOV     R6,#0x8
   2768          	{
   2769          		if(Data & 0x80) TA5731_DATA_HIGH;
   \                     ??Audio_I2C_SendByte_Eq_0:
   \   00000D   EF           MOV     A,R7
   \   00000E   A2E7         MOV     C,0xE0 /* A   */.7
   \   000010   5004         JNC     ??Audio_I2C_SendByte_Eq_1
   \   000012   D286         SETB    0x80.6
   \   000014   8002         SJMP    ??Audio_I2C_SendByte_Eq_2
   2770          		else			TA5731_DATA_LOW;
   \                     ??Audio_I2C_SendByte_Eq_1:
   \   000016   C286         CLR     0x80.6
   2771          		delay(30);
   \                     ??Audio_I2C_SendByte_Eq_2:
   \   000018                ; Setup parameters for call to function delay
   \   000018   12....       LCALL   ?Subroutine12
   2772          		TA5731_CLK_HIGH;
   2773          		delay(30);
   2774          		Data <<= 1;
   \                     ??CrossCallReturnLabel_30:
   \   00001B   EF           MOV     A,R7
   \   00001C   C3           CLR     C
   \   00001D   33           RLC     A
   \   00001E   FF           MOV     R7,A
   2775          		TA5731_CLK_LOW;
   \   00001F   C294         CLR     0x90.4
   2776          	}
   \   000021   1E           DEC     R6
   \   000022   EE           MOV     A,R6
   \   000023   70E8         JNZ     ??Audio_I2C_SendByte_Eq_0
   2777          }
   \   000025   02....       LJMP    ??Subroutine21_0

   \                                 In segment DSP_IIC_EQ, align 1, keep-with-next
   \                     ?Subroutine21:
   \   000000   90....       MOV     DPTR,#(Audio_I2C_Stop_Eq & 0xffff)
   \   000003   74..         MOV     A,#((Audio_I2C_Stop_Eq >> 16) & 0xff)
   \   000005   12....       LCALL   ?BCALL               ; Banked call to: DPTR()
   \                     ??Subroutine21_0:
   \   000008   D0E0         POP     A
   \   00000A   FF           MOV     R7,A
   \   00000B   D0E0         POP     A
   \   00000D   FE           MOV     R6,A
   \   00000E   02....       LJMP    ?BRET
   2778          
   2779          #pragma location="DSP_IIC_EQ"

   \                                 In segment DSP_IIC_EQ, align 1, keep-with-next
   2780          void Peq_Music_Set(void)
   \                     Peq_Music_Set:
   2781          {
   \   000000   EE           MOV     A,R6
   \   000001   C0E0         PUSH    A
   \   000003   EF           MOV     A,R7
   \   000004   C0E0         PUSH    A
   \   000006                ; Saved register size: 2
   \   000006                ; Auto size: 0
   2782              u16 i;
   2783              //发起始信号
   2784              Audio_I2C_Start_Eq();   
   \   000006                ; Setup parameters for call to function Audio_I2C_Start_Eq
   \   000006   90....       MOV     DPTR,#(Audio_I2C_Start_Eq & 0xffff)
   \   000009   74..         MOV     A,#((Audio_I2C_Start_Eq >> 16) & 0xff)
   \   00000B   12....       LCALL   ?BCALL               ; Banked call to: DPTR()
   2785              //写从地址
   2786              Audio_I2C_SendByte_Eq(MaxxDSPADDERSS);
   \   00000E                ; Setup parameters for call to function Audio_I2C_SendByte_Eq
   \   00000E   79E6         MOV     R1,#-0x1a
   \   000010   90....       MOV     DPTR,#(Audio_I2C_SendByte_Eq & 0xffff)
   \   000013   74..         MOV     A,#((Audio_I2C_SendByte_Eq >> 16) & 0xff)
   \   000015   12....       LCALL   ?BCALL               ; Banked call to: DPTR()
   2787              Audio_ReceiveACK_Eq();
   \   000018                ; Setup parameters for call to function Audio_ReceiveACK_Eq
   \   000018   90....       MOV     DPTR,#(Audio_ReceiveACK_Eq & 0xffff)
   \   00001B   74..         MOV     A,#((Audio_ReceiveACK_Eq >> 16) & 0xff)
   \   00001D   12....       LCALL   ?BCALL               ; Banked call to: DPTR()
   2788              // 写数据    
   2789              for( i = 0 ;i< sizeof(g_abMaxxDSP_EQ_Music);i++)
   \   000020   7E00         MOV     R6,#0x0
   \   000022   7F00         MOV     R7,#0x0
   2790              {
   2791                  Audio_I2C_SendByte_Eq(g_abMaxxDSP_EQ_Music[i]);
   \                     ??Peq_Music_Set_0:
   \   000024                ; Setup parameters for call to function Audio_I2C_SendByte_Eq
   \   000024   EE           MOV     A,R6
   \   000025   24..         ADD     A,#(g_abMaxxDSP_EQ_Music & 0xff)
   \   000027   F582         MOV     DPL,A
   \   000029   EF           MOV     A,R7
   \   00002A   34..         ADDC    A,#((g_abMaxxDSP_EQ_Music >> 8) & 0xff)
   \   00002C   12....       LCALL   ?Subroutine13
   \                     ??CrossCallReturnLabel_31:
   \   00002F   12....       LCALL   ?BCALL               ; Banked call to: DPTR()
   2792                  Audio_ReceiveACK_Eq();
   \   000032                ; Setup parameters for call to function Audio_ReceiveACK_Eq
   \   000032   90....       MOV     DPTR,#(Audio_ReceiveACK_Eq & 0xffff)
   \   000035   74..         MOV     A,#((Audio_ReceiveACK_Eq >> 16) & 0xff)
   \   000037   12....       LCALL   ?BCALL               ; Banked call to: DPTR()
   2793              }
   \   00003A   12....       LCALL   ?Subroutine11
   \                     ??CrossCallReturnLabel_25:
   \   00003D   40E5         JC      ??Peq_Music_Set_0
   2794              //发送停止信号 
   2795              Audio_I2C_Stop_Eq();     // Stop and return
   \   00003F                ; Setup parameters for call to function Audio_I2C_Stop_Eq
   \   00003F   02....       LJMP    ?Subroutine21
   2796          }

   \                                 In segment DSP_IIC_EQ, align 1, keep-with-next
   \                     ?Subroutine13:
   \   000000   F583         MOV     DPH,A
   \   000002   E4           CLR     A
   \   000003   93           MOVC    A,@A+DPTR
   \   000004   F9           MOV     R1,A
   \   000005   90....       MOV     DPTR,#(Audio_I2C_SendByte_Eq & 0xffff)
   \   000008   74..         MOV     A,#((Audio_I2C_SendByte_Eq >> 16) & 0xff)
   \   00000A   22           RET

   \                                 In segment DSP_IIC_EQ, align 1, keep-with-next
   \                     ?Subroutine11:
   \   000000   EE           MOV     A,R6
   \   000001   2401         ADD     A,#0x1
   \   000003   0E           INC     R6
   \   000004   EF           MOV     A,R7
   \   000005   3400         ADDC    A,#0x0
   \   000007   FF           MOV     R7,A
   \   000008   C3           CLR     C
   \   000009   EE           MOV     A,R6
   \   00000A   9402         SUBB    A,#0x2
   \   00000C   EF           MOV     A,R7
   \   00000D   9401         SUBB    A,#0x1
   \   00000F   22           RET
   2797          
   2798          #pragma location="DSP_IIC_EQ"

   \                                 In segment DSP_IIC_EQ, align 1, keep-with-next
   2799          void Peq_TV_Set(void)
   \                     Peq_TV_Set:
   2800          {
   \   000000   EE           MOV     A,R6
   \   000001   C0E0         PUSH    A
   \   000003   EF           MOV     A,R7
   \   000004   C0E0         PUSH    A
   \   000006                ; Saved register size: 2
   \   000006                ; Auto size: 0
   2801              u16 i;
   2802              //发起始信号
   2803              Audio_I2C_Start_Eq();   
   \   000006                ; Setup parameters for call to function Audio_I2C_Start_Eq
   \   000006   90....       MOV     DPTR,#(Audio_I2C_Start_Eq & 0xffff)
   \   000009   74..         MOV     A,#((Audio_I2C_Start_Eq >> 16) & 0xff)
   \   00000B   12....       LCALL   ?BCALL               ; Banked call to: DPTR()
   2804              //写从地址
   2805              Audio_I2C_SendByte_Eq(MaxxDSPADDERSS);
   \   00000E                ; Setup parameters for call to function Audio_I2C_SendByte_Eq
   \   00000E   79E6         MOV     R1,#-0x1a
   \   000010   90....       MOV     DPTR,#(Audio_I2C_SendByte_Eq & 0xffff)
   \   000013   74..         MOV     A,#((Audio_I2C_SendByte_Eq >> 16) & 0xff)
   \   000015   12....       LCALL   ?BCALL               ; Banked call to: DPTR()
   2806              Audio_ReceiveACK_Eq();
   \   000018                ; Setup parameters for call to function Audio_ReceiveACK_Eq
   \   000018   90....       MOV     DPTR,#(Audio_ReceiveACK_Eq & 0xffff)
   \   00001B   74..         MOV     A,#((Audio_ReceiveACK_Eq >> 16) & 0xff)
   \   00001D   12....       LCALL   ?BCALL               ; Banked call to: DPTR()
   2807              // 写数据    
   2808              for( i = 0 ;i< sizeof(g_abMaxxDSP_EQ_TV);i++)
   \   000020   7E00         MOV     R6,#0x0
   \   000022   7F00         MOV     R7,#0x0
   2809              {
   2810                  Audio_I2C_SendByte_Eq(g_abMaxxDSP_EQ_TV[i]);
   \                     ??Peq_TV_Set_0:
   \   000024                ; Setup parameters for call to function Audio_I2C_SendByte_Eq
   \   000024   EE           MOV     A,R6
   \   000025   24..         ADD     A,#(g_abMaxxDSP_EQ_TV & 0xff)
   \   000027   F582         MOV     DPL,A
   \   000029   EF           MOV     A,R7
   \   00002A   34..         ADDC    A,#((g_abMaxxDSP_EQ_TV >> 8) & 0xff)
   \   00002C   12....       LCALL   ?Subroutine13
   \                     ??CrossCallReturnLabel_32:
   \   00002F   12....       LCALL   ?BCALL               ; Banked call to: DPTR()
   2811                  Audio_ReceiveACK_Eq();
   \   000032                ; Setup parameters for call to function Audio_ReceiveACK_Eq
   \   000032   90....       MOV     DPTR,#(Audio_ReceiveACK_Eq & 0xffff)
   \   000035   74..         MOV     A,#((Audio_ReceiveACK_Eq >> 16) & 0xff)
   \   000037   12....       LCALL   ?BCALL               ; Banked call to: DPTR()
   2812              }
   \   00003A   12....       LCALL   ?Subroutine11
   \                     ??CrossCallReturnLabel_26:
   \   00003D   40E5         JC      ??Peq_TV_Set_0
   2813              //发送停止信号 
   2814              Audio_I2C_Stop_Eq();     // Stop and return
   \   00003F                ; Setup parameters for call to function Audio_I2C_Stop_Eq
   \   00003F   80..         SJMP    ?Subroutine21
   2815          }
   2816          
   2817          #pragma location="DSP_IIC_EQ"

   \                                 In segment DSP_IIC_EQ, align 1, keep-with-next
   2818          void Peq_Movie_Set(void)
   \                     Peq_Movie_Set:
   2819          {
   \   000000   EE           MOV     A,R6
   \   000001   C0E0         PUSH    A
   \   000003   EF           MOV     A,R7
   \   000004   C0E0         PUSH    A
   \   000006                ; Saved register size: 2
   \   000006                ; Auto size: 0
   2820              u16 i;
   2821              //发起始信号
   2822              Audio_I2C_Start_Eq();   
   \   000006                ; Setup parameters for call to function Audio_I2C_Start_Eq
   \   000006   90....       MOV     DPTR,#(Audio_I2C_Start_Eq & 0xffff)
   \   000009   74..         MOV     A,#((Audio_I2C_Start_Eq >> 16) & 0xff)
   \   00000B   12....       LCALL   ?BCALL               ; Banked call to: DPTR()
   2823              //写从地址
   2824              Audio_I2C_SendByte_Eq(MaxxDSPADDERSS);
   \   00000E                ; Setup parameters for call to function Audio_I2C_SendByte_Eq
   \   00000E   79E6         MOV     R1,#-0x1a
   \   000010   90....       MOV     DPTR,#(Audio_I2C_SendByte_Eq & 0xffff)
   \   000013   74..         MOV     A,#((Audio_I2C_SendByte_Eq >> 16) & 0xff)
   \   000015   12....       LCALL   ?BCALL               ; Banked call to: DPTR()
   2825              Audio_ReceiveACK_Eq();
   \   000018                ; Setup parameters for call to function Audio_ReceiveACK_Eq
   \   000018   90....       MOV     DPTR,#(Audio_ReceiveACK_Eq & 0xffff)
   \   00001B   74..         MOV     A,#((Audio_ReceiveACK_Eq >> 16) & 0xff)
   \   00001D   12....       LCALL   ?BCALL               ; Banked call to: DPTR()
   2826              // 写数据    
   2827              for( i = 0 ;i< sizeof(g_abMaxxDSP_EQ_MOVIE);i++)
   \   000020   7E00         MOV     R6,#0x0
   \   000022   7F00         MOV     R7,#0x0
   2828              {
   2829                  Audio_I2C_SendByte_Eq(g_abMaxxDSP_EQ_MOVIE[i]);
   \                     ??Peq_Movie_Set_0:
   \   000024                ; Setup parameters for call to function Audio_I2C_SendByte_Eq
   \   000024   EE           MOV     A,R6
   \   000025   24..         ADD     A,#(g_abMaxxDSP_EQ_MOVIE & 0xff)
   \   000027   F582         MOV     DPL,A
   \   000029   EF           MOV     A,R7
   \   00002A   34..         ADDC    A,#((g_abMaxxDSP_EQ_MOVIE >> 8) & 0xff)
   \   00002C   12....       LCALL   ?Subroutine13
   \                     ??CrossCallReturnLabel_33:
   \   00002F   12....       LCALL   ?BCALL               ; Banked call to: DPTR()
   2830                  Audio_ReceiveACK_Eq();
   \   000032                ; Setup parameters for call to function Audio_ReceiveACK_Eq
   \   000032   90....       MOV     DPTR,#(Audio_ReceiveACK_Eq & 0xffff)
   \   000035   74..         MOV     A,#((Audio_ReceiveACK_Eq >> 16) & 0xff)
   \   000037   12....       LCALL   ?BCALL               ; Banked call to: DPTR()
   2831              }
   \   00003A   12....       LCALL   ?Subroutine11
   \                     ??CrossCallReturnLabel_27:
   \   00003D   40E5         JC      ??Peq_Movie_Set_0
   2832              //发送停止信号 
   2833              Audio_I2C_Stop_Eq();     // Stop and return
   \   00003F                ; Setup parameters for call to function Audio_I2C_Stop_Eq
   \   00003F                REQUIRE ?Subroutine21
   \   00003F                ; // Fall through to label ?Subroutine21
   2834          }
   2835          
   2836          #pragma location="DSP_IIC_EQ"

   \                                 In segment DSP_IIC_EQ, align 1, keep-with-next
   2837          void AudioCodec_Eq_Set(u8 Types)
   \                     AudioCodec_Eq_Set:
   2838          {
   \   000000                ; Saved register size: 0
   \   000000                ; Auto size: 0
   2839              switch(Types)
   \   000000   E9           MOV     A,R1
   \   000001   12....       LCALL   ?UC_SWITCH_DENSE
   \                     `?<Jumptable for AudioCodec_Eq_Set>_0`:
   \   000004   01           DB        1
   \   000005   01           DB        1
   \   000006   ....         DW        ??AudioCodec_Eq_Set_0
   \   000008   ....         DW        ??AudioCodec_Eq_Set_1
   \   00000A   ....         DW        ??AudioCodec_Eq_Set_2
   2840              {
   2841                  case STATUS_TV:
   2842                      Peq_TV_Set();
   \                     ??AudioCodec_Eq_Set_1:
   \   00000C                ; Setup parameters for call to function Peq_TV_Set
   \   00000C   90....       MOV     DPTR,#(Peq_TV_Set & 0xffff)
   \   00000F   74..         MOV     A,#((Peq_TV_Set >> 16) & 0xff)
   \   000011   800C         SJMP    ??AudioCodec_Eq_Set_3
   2843                      break;
   2844                      
   2845                  case STATUS_MOVIE: 
   2846                      Peq_Movie_Set();
   \                     ??AudioCodec_Eq_Set_2:
   \   000013                ; Setup parameters for call to function Peq_Movie_Set
   \   000013   90....       MOV     DPTR,#(Peq_Movie_Set & 0xffff)
   \   000016   74..         MOV     A,#((Peq_Movie_Set >> 16) & 0xff)
   \   000018   8005         SJMP    ??AudioCodec_Eq_Set_3
   2847                      break;
   2848                      
   2849                  default: 
   2850                      Peq_Music_Set();
   \                     ??AudioCodec_Eq_Set_0:
   \   00001A                ; Setup parameters for call to function Peq_Music_Set
   \   00001A   90....       MOV     DPTR,#(Peq_Music_Set & 0xffff)
   \   00001D   74..         MOV     A,#((Peq_Music_Set >> 16) & 0xff)
   \                     ??AudioCodec_Eq_Set_3:
   \   00001F   12....       LCALL   ?BCALL               ; Banked call to: DPTR()
   2851                      break;
   2852              }  
   2853          }
   \   000022   02....       LJMP    ?BRET

   \                                 In segment CODE_C, align 1
   \                     __Constant_0:
   \   000000   00000000     DD 0

   \                                 In segment CODE_C, align 1
   \                     __Constant_1:
   \   000000   01000000     DD 1

   \                                 In segment CODE_C, align 1
   \                     __Constant_4ec:
   \   000000   EC040000     DD 1260

   \                                 In segment CODE_C, align 1
   \                     __Constant_14d:
   \   000000   4D010000     DD 333

   \                                 In segment CODE_C, align 1
   \                     __Constant_3:
   \   000000   03000000     DD 3

   \                                 In segment CODE_C, align 1
   \                     __Constant_a411:
   \   000000   11A40000     DD 42001

   \                                 In segment CODE_C, align 1
   \                     __Constant_d37f:
   \   000000   7FD30000     DD 54143

   \                                 In segment CODE_C, align 1
   \                     __Constant_d60e:
   \   000000   0ED60000     DD 54798

   \                                 In segment CODE_C, align 1
   \                     __Constant_d600:
   \   000000   00D60000     DD 54784

   \                                 In segment CODE_C, align 1
   \                     __Constant_d607:
   \   000000   07D60000     DD 54791

   \                                 In segment CODE_C, align 1
   \                     __Constant_d33c:
   \   000000   3CD30000     DD 54076

   \                                 In segment CODE_C, align 1
   \                     __Constant_d300:
   \   000000   00D30000     DD 54016

   \                                 In segment CODE_C, align 1
   \                     __Constant_34b:
   \   000000   4B030000     DD 843

   \                                 In segment CODE_C, align 1
   \                     __Constant_345:
   \   000000   45030000     DD 837
   2854          
   2855          #endif
   2856          

   Maximum stack usage in bytes:

     Function                       EXT_STACK PSTACK XSTACK
     --------                       --------- ------ ------
     AudioCodec_3d_Set                     4      0      0
       -> set_AudioDAC_VOL                 8      0      0
       -> set_AudioDAC_VOL                 8      0      0
       -> set_AudioDAC_VOL                 8      0      0
       -> set_AudioDAC_VOL                 8      0      0
       -> set_AudioDAC_VOL                 8      0      0
       -> set_AudioDAC_VOL                 8      0      0
       -> set_AudioDAC_VOL                 8      0      0
       -> set_AudioDAC_VOL                 8      0      0
       -> set_AudioDAC_VOL                 8      0      0
       -> set_AudioDAC_VOL                 8      0      0
       -> set_AudioDAC_VOL                 8      0      0
       -> set_AudioDAC_VOL                 8      0      0
       -> Audio_I2C_Stop                   8      0      0
     AudioCodec_Eq_Set                     0      0      0
       -> Peq_TV_Set                       0      0      0
       -> Peq_Movie_Set                    0      0      0
       -> Peq_Music_Set                    0      0      0
     AudioCodec_MUTE                      13      0      0
       -> Maxiiaudio_I2C_writeCode0       24      0      0
       -> Set_AudioCodec_Volume           20      0      0
       -> delay_5ms                       20      0      0
       -> Maxiiaudio_I2C_writeCode0       24      0      0
       -> Set_AudioCodec_Volume           20      0      0
       -> delay_5ms                       20      0      0
       -> Maxiiaudio_I2C_writeCode0       24      0      0
     AudioCodec_Volume_Set                 1      0      0
       -> Treble_Vol_Set                   2      0      0
       -> SW_Vol_Set                       2      0      0
       -> Bass_Vol_Set                     2      0      0
       -> Main_Vol_Set                     2      0      0
       -> SW_Vol_Set                       2      0      0
       -> AudioCodec_MUTE                  2      0      0
       -> AudioCodec_MUTE                  2      0      0
       -> sys_unmute                       2      0      0
       -> AudioCodec_MUTE                  2      0      0
     AudioData_Init0                      11      0      0
       -> Audio_I2C_Start                 22      0      0
       -> Audio_I2C_SendByte              22      0      0
       -> Audio_ReceiveACK                22      0      0
       -> Audio_I2C_SendByte              22      0      0
       -> Audio_ReceiveACK                22      0      0
       -> Audio_I2C_Stop                  22      0      0
     AudioData_Init1                      11      0      0
       -> Audio_I2C_Start1                22      0      0
       -> Audio_I2C_SendByte1             22      0      0
       -> Audio_ReceiveACK1               22      0      0
       -> Audio_I2C_SendByte1             22      0      0
       -> Audio_ReceiveACK1               22      0      0
       -> Audio_I2C_SendByte1             22      0      0
       -> Audio_ReceiveACK1               22      0      0
       -> Audio_I2C_Stop1                 22      0      0
     AudioData_Init2                      11      0      0
       -> Audio_I2C_Start2                22      0      0
       -> Audio_I2C_SendByte2             22      0      0
       -> Audio_ReceiveACK2               22      0      0
       -> Audio_I2C_SendByte2             22      0      0
       -> Audio_ReceiveACK2               22      0      0
       -> Audio_I2C_Stop2                 22      0      0
     Audio_I2C_SendByte                   17      0      0
       -> delay                            4      0      0
       -> delay                            4      0      0
     Audio_I2C_SendByte1                  13      0      0
       -> delay                            4      0      0
       -> delay                            4      0      0
     Audio_I2C_SendByte2                  13      0      0
       -> delay                            4      0      0
       -> delay                            4      0      0
     Audio_I2C_SendByte_Eq                 4      0      0
       -> delay                            4      0      0
       -> delay                            4      0      0
     Audio_I2C_Start                      15      0      0
       -> delay                            0      0      0
       -> delay                            0      0      0
     Audio_I2C_Start1                     11      0      0
       -> delay                            0      0      0
       -> delay                            0      0      0
     Audio_I2C_Start2                     11      0      0
       -> delay                            0      0      0
       -> delay                            0      0      0
     Audio_I2C_Start_Eq                    2      0      0
       -> delay                            0      0      0
       -> delay                            0      0      0
     Audio_I2C_Stop                       15      0      0
       -> delay                            0      0      0
       -> delay                            0      0      0
       -> delay                            0      0      0
     Audio_I2C_Stop1                      11      0      0
       -> delay                            0      0      0
       -> delay                            0      0      0
       -> delay                            0      0      0
     Audio_I2C_Stop2                      11      0      0
       -> delay                            0      0      0
       -> delay                            0      0      0
       -> delay                            0      0      0
     Audio_I2C_Stop_Eq                     2      0      0
       -> delay                            0      0      0
       -> delay                            0      0      0
       -> delay                            0      0      0
     Audio_ReceiveACK                     16      0      0
       -> delay                            2      0      0
       -> delay                            2      0      0
       -> delay                            2      0      0
     Audio_ReceiveACK1                    12      0      0
       -> delay                            2      0      0
       -> delay                            2      0      0
       -> delay                            2      0      0
     Audio_ReceiveACK2                    12      0      0
       -> delay                            2      0      0
       -> delay                            2      0      0
       -> delay                            2      0      0
     Audio_ReceiveACK_Eq                   3      0      0
       -> delay                            2      0      0
       -> delay                            2      0      0
       -> delay                            2      0      0
     Audio_Slow_Volume                     5      0      0
       -> Set_AudioCodec_Volume           10      0      0
       -> delay_5ms                       10      0      0
       -> Set_AudioCodec_Volume           10      0      0
       -> delay_5ms                       10      0      0
     Bass_Vol_Set                          2      0      0
       -> Write_Npcp215_Bass_Treble        2      0      0
       -> spi_param_write8                 2      0      0
     Main_Vol_Set                          2      0      0
       -> Set_AudioCodec_Volume            2      0      0
       -> spi_param_write8                 2      0      0
     Maxiiaudio_I2C_writeCode0            31      0      0
       -> Audio_I2C_Start                 30      0      0
       -> Audio_I2C_SendByte              30      0      0
       -> Audio_ReceiveACK                30      0      0
       -> Audio_I2C_SendByte              30      0      0
       -> Audio_ReceiveACK                30      0      0
       -> Audio_I2C_Stop                  30      0      0
     Peq_Movie_Set                         2      0      0
       -> Audio_I2C_Start_Eq               4      0      0
       -> Audio_I2C_SendByte_Eq            4      0      0
       -> Audio_ReceiveACK_Eq              4      0      0
       -> Audio_I2C_SendByte_Eq            4      0      0
       -> Audio_ReceiveACK_Eq              4      0      0
       -> Audio_I2C_Stop_Eq                4      0      0
     Peq_Music_Set                         2      0      0
       -> Audio_I2C_Start_Eq               4      0      0
       -> Audio_I2C_SendByte_Eq            4      0      0
       -> Audio_ReceiveACK_Eq              4      0      0
       -> Audio_I2C_SendByte_Eq            4      0      0
       -> Audio_ReceiveACK_Eq              4      0      0
       -> Audio_I2C_Stop_Eq                4      0      0
     Peq_TV_Set                            2      0      0
       -> Audio_I2C_Start_Eq               4      0      0
       -> Audio_I2C_SendByte_Eq            4      0      0
       -> Audio_ReceiveACK_Eq              4      0      0
       -> Audio_I2C_SendByte_Eq            4      0      0
       -> Audio_ReceiveACK_Eq              4      0      0
       -> Audio_I2C_Stop_Eq                4      0      0
     SW_Vol_Set                            2      0      0
       -> Set_Sub_Volume                   2      0      0
       -> spi_param_write8                 2      0      0
     Set_AudioCodec_MaxxBass               9      0      0
       -> Maxiiaudio_I2C_writeCode0       18      0      0
     Set_AudioCodec_Volume                21      0      0
       -> set_AudioDAC_VOL                22      0      0
       -> set_AudioDAC_VOL                22      0      0
       -> Audio_I2C_Start                 22      0      0
       -> Audio_I2C_SendByte              22      0      0
       -> Audio_ReceiveACK                22      0      0
       -> Audio_I2C_SendByte              22      0      0
       -> Audio_ReceiveACK                22      0      0
       -> Audio_I2C_Stop                  22      0      0
     Treble_Vol_Set                        2      0      0
       -> Write_Npcp215_Bass_Treble        2      0      0
       -> spi_param_write8                 2      0      0
     Write_Npcp215_Bass_Treble             8      0      0
       -> Audio_I2C_Start2                14      0      0
       -> Audio_I2C_SendByte2             14      0      0
       -> Audio_ReceiveACK2               14      0      0
       -> Audio_I2C_SendByte2             14      0      0
       -> Audio_ReceiveACK2               14      0      0
       -> Audio_I2C_SendByte2             14      0      0
       -> Audio_I2C_SendByte2             14      0      0
       -> Audio_I2C_SendByte2             14      0      0
       -> Audio_I2C_SendByte2             14      0      0
       -> Audio_ReceiveACK2               14      0      0
       -> Audio_I2C_Stop2                 14      0      0
     set_AudioDAC_VOL                     27      0      0
       -> Maxiiaudio_I2C_writeCode0       32      0      0


   Segment part sizes:

     Function/Label            Bytes
     --------------            -----
     P0                           1
     P1                           1
     P0DIR                        1
     P1DIR                        1
     Bypass_Status                1
     Audio_VolumeData           132
     Audio_inputData             51
     MaxxDSP_Bass_Commands       66
     MaxxDSP_Treble_Commands     63
     Treble_Bass_TAB             21
     Treble_Bass_Intensity       21
     MaxxDSP_3D_ON                9
     MaxxDSP_3D_OFF               9
     g_abMaxxDSPCommands_1      333
     g_abMaxxDSPCommands_4     1260
     g_abMaxxDSPCommands_2      843
     g_abMaxxDSPCommands_3      837
     g_abMaxxDSP_EQ_Music       258
     g_abMaxxDSP_EQ_TV          258
     g_abMaxxDSP_EQ_MOVIE       258
     Audio_I2C_Start             33
     ?Subroutine5                 6
     Audio_I2C_Stop              20
     ?Subroutine0                17
     Audio_ReceiveACK            32
     ?Subroutine17                5
     Audio_I2C_SendByte          40
     ?Subroutine16                6
     Audio_I2C_Start2            33
     ?Subroutine8                 6
     Audio_I2C_Stop2             20
     ?Subroutine7                17
     Audio_ReceiveACK2           37
     Audio_I2C_SendByte2         43
     ?Subroutine20               16
     AudioData_Init2            114
     Maxiiaudio_I2C_writeCode0  133
     AudioData_Init0            101
     ?Subroutine19               13
     AudioCodec_MUTE            313
     ?Subroutine2                 8
     Audio_Slow_Volume           68
     ?Subroutine1                21
     ?Subroutine18                6
     set_AudioDAC_VOL           121
     Set_AudioCodec_Volume      141
     Set_AudioCodec_MaxxBass    139
     ?Subroutine15               11
     Write_Npcp215_Bass_Treble  251
     Main_Vol_Set                37
     Bass_Vol_Set                26
     Treble_Vol_Set              28
     SW_Vol_Set                  40
     AudioCodec_Volume_Set      296
     ?Subroutine6                 6
     ?Subroutine4                 5
     ?Subroutine3                 8
     AudioCodec_3d_Set          152
     Audio_I2C_Start1            33
     ?Subroutine10                6
     Audio_I2C_Stop1             20
     ?Subroutine9                17
     Audio_ReceiveACK1           37
     Audio_I2C_SendByte1         46
     AudioData_Init1            184
     Audio_I2C_Start_Eq          33
     ?Subroutine14                6
     Audio_I2C_Stop_Eq           20
     ?Subroutine12               17
     Audio_ReceiveACK_Eq         37
     Audio_I2C_SendByte_Eq       40
     ?Subroutine21               17
     Peq_Music_Set               66
     ?Subroutine13               11
     ?Subroutine11               16
     Peq_TV_Set                  65
     Peq_Movie_Set               63
     AudioCodec_Eq_Set           37
     __Constant_0                 4
     __Constant_1                 4
     __Constant_4ec               4
     __Constant_14d               4
     __Constant_3                 4
     __Constant_a411              4
     __Constant_d37f              4
     __Constant_d60e              4
     __Constant_d600              4
     __Constant_d607              4
     __Constant_d33c              4
     __Constant_d300              4
     __Constant_34b               4
     __Constant_345               4

 
    56 bytes in segment CODE_C
    40 bytes in segment CS8416_IIC_API
   184 bytes in segment DSP_CODE_API2
   114 bytes in segment DSP_CODE_API3
   351 bytes in segment DSP_DATA1
 1 680 bytes in segment DSP_DATA2
 1 431 bytes in segment DSP_DATA3
   774 bytes in segment DSP_EQ_DATA
 1 738 bytes in segment DSP_IIC_API1
   159 bytes in segment DSP_IIC_API2
   477 bytes in segment DSP_IIC_API3
   428 bytes in segment DSP_IIC_EQ
   183 bytes in segment DSP_VOL_DATA
     4 bytes in segment SFR_AN
     1 byte  in segment XDATA_Z
 
 7 559 bytes of CODE  memory (+ 56 bytes shared)
     0 bytes of DATA  memory (+  4 bytes shared)
     1 byte  of XDATA memory

Errors: none
Warnings: none
